ARM GAS  C:\Users\pawan\AppData\Local\Temp\ccQMv0UH.s 			page 1


   1              		.cpu cortex-m4
   2              		.eabi_attribute 27, 1
   3              		.eabi_attribute 28, 1
   4              		.eabi_attribute 20, 1
   5              		.eabi_attribute 21, 1
   6              		.eabi_attribute 23, 3
   7              		.eabi_attribute 24, 1
   8              		.eabi_attribute 25, 1
   9              		.eabi_attribute 26, 1
  10              		.eabi_attribute 30, 1
  11              		.eabi_attribute 34, 1
  12              		.eabi_attribute 18, 4
  13              		.file	"robo_init.cpp"
  14              		.text
  15              	.Ltext0:
  16              		.cfi_sections	.debug_frame
  17              		.section	.text.__tcf_0,"ax",%progbits
  18              		.align	1
  19              		.syntax unified
  20              		.thumb
  21              		.thumb_func
  22              		.fpu fpv4-sp-d16
  24              	__tcf_0:
  25              	.LFB396:
  26              		.file 1 "Core/Src/robo_init.cpp"
   1:Core/Src/robo_init.cpp **** #include "robo_init.h"
   2:Core/Src/robo_init.cpp **** 
   3:Core/Src/robo_init.cpp **** 
   4:Core/Src/robo_init.cpp **** motor gMotors[4];
  27              		.loc 1 4 0
  28              		.cfi_startproc
  29              		@ args = 0, pretend = 0, frame = 0
  30              		@ frame_needed = 0, uses_anonymous_args = 0
  31              		@ link register save eliminated.
  32              		.loc 1 4 0
  33 0000 034B     		ldr	r3, .L4
  34              	.L3:
  35              		.loc 1 4 0 is_stmt 0 discriminator 5
  36 0002 044A     		ldr	r2, .L4+4
  37 0004 9342     		cmp	r3, r2
  38 0006 01D0     		beq	.L1
  39              		.loc 1 4 0 discriminator 4
  40 0008 183B     		subs	r3, r3, #24
  41              	.LVL0:
  42 000a FAE7     		b	.L3
  43              	.LVL1:
  44              	.L1:
  45              		.loc 1 4 0
  46 000c 7047     		bx	lr
  47              	.L5:
  48 000e 00BF     		.align	2
  49              	.L4:
  50 0010 60000000 		.word	.LANCHOR0+96
  51 0014 00000000 		.word	.LANCHOR0
  52              		.cfi_endproc
  53              	.LFE396:
  55              		.section	.text._ZL10motor_initv,"ax",%progbits
ARM GAS  C:\Users\pawan\AppData\Local\Temp\ccQMv0UH.s 			page 2


  56              		.align	1
  57              		.syntax unified
  58              		.thumb
  59              		.thumb_func
  60              		.fpu fpv4-sp-d16
  62              	_ZL10motor_initv:
  63              	.LFB394:
   5:Core/Src/robo_init.cpp **** static motor_config motor_configurations[4];
   6:Core/Src/robo_init.cpp **** //static  encoder_config encoder_configurations[4];
   7:Core/Src/robo_init.cpp **** 
   8:Core/Src/robo_init.cpp **** 
   9:Core/Src/robo_init.cpp **** static void motor_init();
  10:Core/Src/robo_init.cpp **** //static void encoder_init();
  11:Core/Src/robo_init.cpp **** static void pid_init();
  12:Core/Src/robo_init.cpp **** 
  13:Core/Src/robo_init.cpp **** 
  14:Core/Src/robo_init.cpp **** void robo_init(){ 
  15:Core/Src/robo_init.cpp **** 	printf("\nLet's Begin\n");
  16:Core/Src/robo_init.cpp **** 	pid_init();
  17:Core/Src/robo_init.cpp **** 	encoder_init();	
  18:Core/Src/robo_init.cpp ****     motor_init();	
  19:Core/Src/robo_init.cpp **** 	
  20:Core/Src/robo_init.cpp **** }
  21:Core/Src/robo_init.cpp **** 
  22:Core/Src/robo_init.cpp **** 
  23:Core/Src/robo_init.cpp **** 
  24:Core/Src/robo_init.cpp **** static void pid_init()
  25:Core/Src/robo_init.cpp **** {
  26:Core/Src/robo_init.cpp **** 	gMotors[0].setPID_constraints(3,1.2,0,38,-38);       //34.5557,(7-8)          2.41,1.21
  27:Core/Src/robo_init.cpp **** 	gMotors[1].setPID_constraints(1.41,0.172,0,38,-38);        //34.5557,(7-8)    1.509,0.172
  28:Core/Src/robo_init.cpp **** 	gMotors[2].setPID_constraints(3.4,0.79,0,38,-38);    //34.557,(7-8)         3.6,0.79
  29:Core/Src/robo_init.cpp **** 	gMotors[3].setPID_constraints(1.8,0.22,0,38,-38);     //34.557,(7-8)            1.8,0.22
  30:Core/Src/robo_init.cpp **** 	//gMotors[3].set_omega(40);
  31:Core/Src/robo_init.cpp **** 	
  32:Core/Src/robo_init.cpp **** }
  33:Core/Src/robo_init.cpp **** 
  34:Core/Src/robo_init.cpp **** 
  35:Core/Src/robo_init.cpp **** void motor_init(){
  64              		.loc 1 35 0 is_stmt 1
  65              		.cfi_startproc
  66              		@ args = 0, pretend = 0, frame = 0
  67              		@ frame_needed = 0, uses_anonymous_args = 0
  68 0000 F8B5     		push	{r3, r4, r5, r6, r7, lr}
  69              	.LCFI0:
  70              		.cfi_def_cfa_offset 24
  71              		.cfi_offset 3, -24
  72              		.cfi_offset 4, -20
  73              		.cfi_offset 5, -16
  74              		.cfi_offset 6, -12
  75              		.cfi_offset 7, -8
  76              		.cfi_offset 14, -4
  36:Core/Src/robo_init.cpp ****         motor_configurations[0].htim = &htim8;
  77              		.loc 1 36 0
  78 0002 304C     		ldr	r4, .L10
  79 0004 3048     		ldr	r0, .L10+4
  80 0006 A061     		str	r0, [r4, #24]
  37:Core/Src/robo_init.cpp ****         motor_configurations[0].in1_port = GPIOD;
ARM GAS  C:\Users\pawan\AppData\Local\Temp\ccQMv0UH.s 			page 3


  81              		.loc 1 37 0
  82 0008 DFF8E0C0 		ldr	ip, .L10+40
  83 000c C4F808C0 		str	ip, [r4, #8]
  38:Core/Src/robo_init.cpp ****         motor_configurations[0].in1_pin = GPIO_PIN_0; 
  84              		.loc 1 38 0
  85 0010 0123     		movs	r3, #1
  86 0012 A381     		strh	r3, [r4, #12]	@ movhi
  39:Core/Src/robo_init.cpp ****         motor_configurations[0].in2_port = GPIOE;
  87              		.loc 1 39 0
  88 0014 2D4A     		ldr	r2, .L10+8
  89 0016 2261     		str	r2, [r4, #16]
  40:Core/Src/robo_init.cpp ****         motor_configurations[0].in2_pin = GPIO_PIN_5;
  90              		.loc 1 40 0
  91 0018 2021     		movs	r1, #32
  92 001a A182     		strh	r1, [r4, #20]	@ movhi
  41:Core/Src/robo_init.cpp ****         motor_configurations[0].channel = TIM_CHANNEL_1;
  93              		.loc 1 41 0
  94 001c 0025     		movs	r5, #0
  95 001e E561     		str	r5, [r4, #28]
  42:Core/Src/robo_init.cpp ****         motor_configurations[0].max_omega = 94;
  96              		.loc 1 42 0
  97 0020 2B4B     		ldr	r3, .L10+12
  98 0022 2360     		str	r3, [r4]	@ float
  43:Core/Src/robo_init.cpp ****         motor_configurations[0].tolerance = 0.1;
  99              		.loc 1 43 0
 100 0024 2B4B     		ldr	r3, .L10+16
 101 0026 6360     		str	r3, [r4, #4]	@ float
  44:Core/Src/robo_init.cpp **** 
  45:Core/Src/robo_init.cpp **** 		motor_configurations[1].htim = &htim8;
 102              		.loc 1 45 0
 103 0028 A063     		str	r0, [r4, #56]
  46:Core/Src/robo_init.cpp ****         motor_configurations[1].in1_port = GPIOA;
 104              		.loc 1 46 0
 105 002a 2B4E     		ldr	r6, .L10+20
 106 002c A662     		str	r6, [r4, #40]
  47:Core/Src/robo_init.cpp ****         motor_configurations[1].in1_pin = GPIO_PIN_10;
 107              		.loc 1 47 0
 108 002e 4FF48066 		mov	r6, #1024
 109 0032 A685     		strh	r6, [r4, #44]	@ movhi
  48:Core/Src/robo_init.cpp ****         motor_configurations[1].in2_port = GPIOB;
 110              		.loc 1 48 0
 111 0034 06F18046 		add	r6, r6, #1073741824
 112 0038 06F50036 		add	r6, r6, #131072
 113 003c 2663     		str	r6, [r4, #48]
  49:Core/Src/robo_init.cpp ****         motor_configurations[1].in2_pin = GPIO_PIN_5;
 114              		.loc 1 49 0
 115 003e A186     		strh	r1, [r4, #52]	@ movhi
  50:Core/Src/robo_init.cpp ****         motor_configurations[1].channel = TIM_CHANNEL_2;
 116              		.loc 1 50 0
 117 0040 0427     		movs	r7, #4
 118 0042 E763     		str	r7, [r4, #60]
  51:Core/Src/robo_init.cpp ****         motor_configurations[1].max_omega = 62;
 119              		.loc 1 51 0
 120 0044 2549     		ldr	r1, .L10+24
 121 0046 2162     		str	r1, [r4, #32]	@ float
  52:Core/Src/robo_init.cpp ****         motor_configurations[1].tolerance = 0.1;    
 122              		.loc 1 52 0
ARM GAS  C:\Users\pawan\AppData\Local\Temp\ccQMv0UH.s 			page 4


 123 0048 6362     		str	r3, [r4, #36]	@ float
  53:Core/Src/robo_init.cpp **** 
  54:Core/Src/robo_init.cpp **** 			motor_configurations[2].htim = &htim8;
 124              		.loc 1 54 0
 125 004a A065     		str	r0, [r4, #88]
  55:Core/Src/robo_init.cpp **** 			motor_configurations[2].in1_port = GPIOE;
 126              		.loc 1 55 0
 127 004c A264     		str	r2, [r4, #72]
  56:Core/Src/robo_init.cpp **** 			motor_configurations[2].in1_pin = GPIO_PIN_3;
 128              		.loc 1 56 0
 129 004e 0826     		movs	r6, #8
 130 0050 A4F84C60 		strh	r6, [r4, #76]	@ movhi
  57:Core/Src/robo_init.cpp **** 			motor_configurations[2].in2_port = GPIOD;
 131              		.loc 1 57 0
 132 0054 C4F850C0 		str	ip, [r4, #80]
  58:Core/Src/robo_init.cpp **** 			motor_configurations[2].in2_pin = GPIO_PIN_2;
 133              		.loc 1 58 0
 134 0058 A4F85470 		strh	r7, [r4, #84]	@ movhi
  59:Core/Src/robo_init.cpp **** 			motor_configurations[2].channel = TIM_CHANNEL_3;
 135              		.loc 1 59 0
 136 005c E665     		str	r6, [r4, #92]
  60:Core/Src/robo_init.cpp **** 			motor_configurations[2].max_omega = 87;
 137              		.loc 1 60 0
 138 005e 204E     		ldr	r6, .L10+28
 139 0060 2664     		str	r6, [r4, #64]	@ float
  61:Core/Src/robo_init.cpp **** 			motor_configurations[2].tolerance = 0.1;
 140              		.loc 1 61 0
 141 0062 6364     		str	r3, [r4, #68]	@ float
  62:Core/Src/robo_init.cpp **** 			
  63:Core/Src/robo_init.cpp **** 			motor_configurations[3].htim = &htim8;
 142              		.loc 1 63 0
 143 0064 A067     		str	r0, [r4, #120]
  64:Core/Src/robo_init.cpp **** 			motor_configurations[3].in1_port = GPIOC;
 144              		.loc 1 64 0
 145 0066 1F4E     		ldr	r6, .L10+32
 146 0068 A666     		str	r6, [r4, #104]
  65:Core/Src/robo_init.cpp **** 			motor_configurations[3].in1_pin = GPIO_PIN_13;
 147              		.loc 1 65 0
 148 006a 4FF40056 		mov	r6, #8192
 149 006e A4F86C60 		strh	r6, [r4, #108]	@ movhi
  66:Core/Src/robo_init.cpp **** 			motor_configurations[3].in2_port = GPIOE;
 150              		.loc 1 66 0
 151 0072 2267     		str	r2, [r4, #112]
  67:Core/Src/robo_init.cpp **** 			motor_configurations[3].in2_pin = GPIO_PIN_1;
 152              		.loc 1 67 0
 153 0074 0222     		movs	r2, #2
 154 0076 A4F87420 		strh	r2, [r4, #116]	@ movhi
  68:Core/Src/robo_init.cpp **** 			motor_configurations[3].channel = TIM_CHANNEL_4;
 155              		.loc 1 68 0
 156 007a 0C22     		movs	r2, #12
 157 007c E267     		str	r2, [r4, #124]
  69:Core/Src/robo_init.cpp **** 			motor_configurations[3].max_omega = 62;
 158              		.loc 1 69 0
 159 007e 2166     		str	r1, [r4, #96]	@ float
  70:Core/Src/robo_init.cpp **** 			motor_configurations[3].tolerance = 0.1;
 160              		.loc 1 70 0
 161 0080 6366     		str	r3, [r4, #100]	@ float
ARM GAS  C:\Users\pawan\AppData\Local\Temp\ccQMv0UH.s 			page 5


  71:Core/Src/robo_init.cpp **** 
  72:Core/Src/robo_init.cpp **** 		HAL_TIM_Base_Start(&htim8);
 162              		.loc 1 72 0
 163 0082 FFF7FEFF 		bl	HAL_TIM_Base_Start
 164              	.LVL2:
  73:Core/Src/robo_init.cpp **** 		HAL_TIM_PWM_Start(motor_configurations[0].htim, motor_configurations[0].channel);
 165              		.loc 1 73 0
 166 0086 E169     		ldr	r1, [r4, #28]
 167 0088 A069     		ldr	r0, [r4, #24]
 168 008a FFF7FEFF 		bl	HAL_TIM_PWM_Start
 169              	.LVL3:
  74:Core/Src/robo_init.cpp ****         HAL_TIM_PWM_Start(motor_configurations[1].htim, motor_configurations[1].channel);
 170              		.loc 1 74 0
 171 008e E16B     		ldr	r1, [r4, #60]
 172 0090 A06B     		ldr	r0, [r4, #56]
 173 0092 FFF7FEFF 		bl	HAL_TIM_PWM_Start
 174              	.LVL4:
  75:Core/Src/robo_init.cpp ****         HAL_TIM_PWM_Start(motor_configurations[2].htim, motor_configurations[2].channel);
 175              		.loc 1 75 0
 176 0096 E16D     		ldr	r1, [r4, #92]
 177 0098 A06D     		ldr	r0, [r4, #88]
 178 009a FFF7FEFF 		bl	HAL_TIM_PWM_Start
 179              	.LVL5:
  76:Core/Src/robo_init.cpp **** 		  HAL_TIM_PWM_Start(motor_configurations[3].htim, motor_configurations[3].channel);
 180              		.loc 1 76 0
 181 009e E16F     		ldr	r1, [r4, #124]
 182 00a0 A06F     		ldr	r0, [r4, #120]
 183 00a2 FFF7FEFF 		bl	HAL_TIM_PWM_Start
 184              	.LVL6:
 185              	.LBB23:
  77:Core/Src/robo_init.cpp **** 		for(int i=0; i<4; i++)
 186              		.loc 1 77 0
 187 00a6 2B46     		mov	r3, r5
 188              	.LVL7:
 189              	.L8:
 190              		.loc 1 77 0 is_stmt 0 discriminator 3
 191 00a8 032B     		cmp	r3, #3
 192 00aa 09DC     		bgt	.L6
  78:Core/Src/robo_init.cpp **** 		{
  79:Core/Src/robo_init.cpp **** 			gMotors[i].set_config(&motor_configurations[i]);
 193              		.loc 1 79 0 is_stmt 1 discriminator 2
 194 00ac 054A     		ldr	r2, .L10
 195 00ae 02EB4312 		add	r2, r2, r3, lsl #5
 196              	.LVL8:
 197              	.LBB24:
 198              	.LBB25:
 199              		.file 2 "Core/Inc/motor.h"
   1:Core/Inc/motor.h **** #ifndef _MOTOR_H_
   2:Core/Inc/motor.h **** #define _MOTOR_H_
   3:Core/Inc/motor.h **** 
   4:Core/Inc/motor.h **** #include "stm32f4xx_hal.h"
   5:Core/Inc/motor.h **** #include "tim.h"
   6:Core/Inc/motor.h **** #include <math.h>
   7:Core/Inc/motor.h **** #include "main.h"
   8:Core/Inc/motor.h **** #include "pid.h"
   9:Core/Inc/motor.h **** #include  "encoder.h"
  10:Core/Inc/motor.h **** 
ARM GAS  C:\Users\pawan\AppData\Local\Temp\ccQMv0UH.s 			page 6


  11:Core/Inc/motor.h **** enum Direction{
  12:Core/Inc/motor.h **** 	CLOCKWISE,
  13:Core/Inc/motor.h **** 	ANTICLOCKWISE,
  14:Core/Inc/motor.h **** 	STOP
  15:Core/Inc/motor.h **** };
  16:Core/Inc/motor.h **** 
  17:Core/Inc/motor.h **** struct motor_config{
  18:Core/Inc/motor.h **** 	float max_omega;
  19:Core/Inc/motor.h **** 	float tolerance;
  20:Core/Inc/motor.h **** 
  21:Core/Inc/motor.h **** 	GPIO_TypeDef *in1_port;	
  22:Core/Inc/motor.h ****         uint16_t in1_pin;
  23:Core/Inc/motor.h ****         GPIO_TypeDef *in2_port;
  24:Core/Inc/motor.h ****         uint16_t in2_pin;
  25:Core/Inc/motor.h ****         TIM_HandleTypeDef *htim;        // PWM Generating Timer
  26:Core/Inc/motor.h ****         uint32_t channel;               // PWM Channel
  27:Core/Inc/motor.h **** };
  28:Core/Inc/motor.h **** 
  29:Core/Inc/motor.h **** class motor
  30:Core/Inc/motor.h **** {
  31:Core/Inc/motor.h **** public:
  32:Core/Inc/motor.h **** 	motor(){motor_ = 0;}
  33:Core/Inc/motor.h ****         motor(motor_config *motors) { motor_ = motors; }
  34:Core/Inc/motor.h **** 	motor(motor &&) = default;
  35:Core/Inc/motor.h **** 	motor(const motor &) = default;
  36:Core/Inc/motor.h **** 	motor &operator=(motor &&) = default;
  37:Core/Inc/motor.h **** 	motor &operator=(const motor &) = default;
  38:Core/Inc/motor.h **** 	~motor(){}
  39:Core/Inc/motor.h ****         void set_config(motor_config *motors) { motor_ = motors;}
 200              		.loc 2 39 0 discriminator 2
 201 00b2 03EB4300 		add	r0, r3, r3, lsl #1
 202 00b6 C100     		lsls	r1, r0, #3
 203 00b8 0B48     		ldr	r0, .L10+36
 204 00ba 4250     		str	r2, [r0, r1]
 205              	.LVL9:
 206              	.LBE25:
 207              	.LBE24:
  77:Core/Src/robo_init.cpp **** 		{
 208              		.loc 1 77 0 discriminator 2
 209 00bc 0133     		adds	r3, r3, #1
 210              	.LVL10:
 211 00be F3E7     		b	.L8
 212              	.L6:
 213              	.LBE23:
  80:Core/Src/robo_init.cpp **** 		}
  81:Core/Src/robo_init.cpp **** }
 214              		.loc 1 81 0
 215 00c0 F8BD     		pop	{r3, r4, r5, r6, r7, pc}
 216              	.LVL11:
 217              	.L11:
 218 00c2 00BF     		.align	2
 219              	.L10:
 220 00c4 00000000 		.word	.LANCHOR1
 221 00c8 00000000 		.word	htim8
 222 00cc 00100240 		.word	1073876992
 223 00d0 0000BC42 		.word	1119617024
 224 00d4 CDCCCC3D 		.word	1036831949
ARM GAS  C:\Users\pawan\AppData\Local\Temp\ccQMv0UH.s 			page 7


 225 00d8 00000240 		.word	1073872896
 226 00dc 00007842 		.word	1115160576
 227 00e0 0000AE42 		.word	1118699520
 228 00e4 00080240 		.word	1073874944
 229 00e8 00000000 		.word	.LANCHOR0
 230 00ec 000C0240 		.word	1073875968
 231              		.cfi_endproc
 232              	.LFE394:
 234              		.section	.text._Z41__static_initialization_and_destruction_0ii,"ax",%progbits
 235              		.align	1
 236              		.syntax unified
 237              		.thumb
 238              		.thumb_func
 239              		.fpu fpv4-sp-d16
 241              	_Z41__static_initialization_and_destruction_0ii:
 242              	.LFB395:
 243              		.loc 1 81 0
 244              		.cfi_startproc
 245              		@ args = 0, pretend = 0, frame = 0
 246              		@ frame_needed = 0, uses_anonymous_args = 0
 247              	.LVL12:
 248 0000 0128     		cmp	r0, #1
 249 0002 00D0     		beq	.L20
 250 0004 7047     		bx	lr
 251              	.L20:
 252              		.loc 1 81 0 is_stmt 0 discriminator 1
 253 0006 38B5     		push	{r3, r4, r5, lr}
 254              	.LCFI1:
 255              		.cfi_def_cfa_offset 16
 256              		.cfi_offset 3, -16
 257              		.cfi_offset 4, -12
 258              		.cfi_offset 5, -8
 259              		.cfi_offset 14, -4
 260              		.loc 1 81 0 is_stmt 1 discriminator 1
 261 0008 4FF6FF73 		movw	r3, #65535
 262 000c 9942     		cmp	r1, r3
 263 000e 00D0     		beq	.L21
 264              	.LVL13:
 265              	.L12:
 266              		.loc 1 81 0 is_stmt 0
 267 0010 38BD     		pop	{r3, r4, r5, pc}
 268              	.LVL14:
 269              	.L21:
   4:Core/Src/robo_init.cpp **** static motor_config motor_configurations[4];
 270              		.loc 1 4 0 is_stmt 1
 271 0012 0324     		movs	r4, #3
 272 0014 0B4D     		ldr	r5, .L22
 273              	.LVL15:
 274              	.L15:
   4:Core/Src/robo_init.cpp **** static motor_config motor_configurations[4];
 275              		.loc 1 4 0 is_stmt 0 discriminator 4
 276 0016 002C     		cmp	r4, #0
 277 0018 0DDB     		blt	.L14
 278              	.LVL16:
 279              	.LBB26:
 280              	.LBB27:
 281              	.LBB28:
ARM GAS  C:\Users\pawan\AppData\Local\Temp\ccQMv0UH.s 			page 8


 282              	.LBB29:
 283              		.file 3 "Core/Inc/pid.h"
   1:Core/Inc/pid.h **** #ifndef _PID_H_
   2:Core/Inc/pid.h **** #define _PID_H_
   3:Core/Inc/pid.h **** #include "stdio.h"
   4:Core/Inc/pid.h **** //extern float SampleTime=10;
   5:Core/Inc/pid.h **** 
   6:Core/Inc/pid.h **** class PID
   7:Core/Inc/pid.h **** {
   8:Core/Inc/pid.h ****     public:
   9:Core/Inc/pid.h ****         PID(PID &&) = default;
  10:Core/Inc/pid.h ****         PID(const PID &) = default;
  11:Core/Inc/pid.h ****         PID &operator=(PID &&) = default;
  12:Core/Inc/pid.h ****         PID &operator=(const PID &) = default;
  13:Core/Inc/pid.h ****         PID(){setPID(0,0,0);}
 284              		.loc 3 13 0 is_stmt 1
 285 001a 9FED0B0A 		vldr.32	s0, .L22+4
 286 001e B0EE401A 		vmov.f32	s2, s0
 287 0022 F0EE400A 		vmov.f32	s1, s0
 288 0026 281D     		adds	r0, r5, #4
 289              	.LVL17:
 290 0028 FFF7FEFF 		bl	_ZN3PID6setPIDEfff
 291              	.LVL18:
 292              	.LBE29:
 293              	.LBE28:
  32:Core/Inc/motor.h ****         motor(motor_config *motors) { motor_ = motors; }
 294              		.loc 2 32 0
 295 002c 0023     		movs	r3, #0
 296 002e 45F8183B 		str	r3, [r5], #24
 297              	.LVL19:
 298              	.LBE27:
 299              	.LBE26:
   4:Core/Src/robo_init.cpp **** static motor_config motor_configurations[4];
 300              		.loc 1 4 0
 301 0032 013C     		subs	r4, r4, #1
 302 0034 EFE7     		b	.L15
 303              	.L14:
   4:Core/Src/robo_init.cpp **** static motor_config motor_configurations[4];
 304              		.loc 1 4 0 is_stmt 0 discriminator 2
 305 0036 054A     		ldr	r2, .L22+8
 306 0038 0549     		ldr	r1, .L22+12
 307 003a 0020     		movs	r0, #0
 308 003c FFF7FEFF 		bl	__aeabi_atexit
 309              	.LVL20:
 310              		.loc 1 81 0 is_stmt 1 discriminator 2
 311 0040 E6E7     		b	.L12
 312              	.L23:
 313 0042 00BF     		.align	2
 314              	.L22:
 315 0044 00000000 		.word	.LANCHOR0
 316 0048 00000000 		.word	0
 317 004c 00000000 		.word	__dso_handle
 318 0050 00000000 		.word	__tcf_0
 319              		.cfi_endproc
 320              	.LFE395:
 322              		.section	.text._ZL8pid_initv,"ax",%progbits
 323              		.align	1
ARM GAS  C:\Users\pawan\AppData\Local\Temp\ccQMv0UH.s 			page 9


 324              		.syntax unified
 325              		.thumb
 326              		.thumb_func
 327              		.fpu fpv4-sp-d16
 329              	_ZL8pid_initv:
 330              	.LFB393:
  25:Core/Src/robo_init.cpp **** 	gMotors[0].setPID_constraints(3,1.2,0,38,-38);       //34.5557,(7-8)          2.41,1.21
 331              		.loc 1 25 0
 332              		.cfi_startproc
 333              		@ args = 0, pretend = 0, frame = 0
 334              		@ frame_needed = 0, uses_anonymous_args = 0
 335 0000 38B5     		push	{r3, r4, r5, lr}
 336              	.LCFI2:
 337              		.cfi_def_cfa_offset 16
 338              		.cfi_offset 3, -16
 339              		.cfi_offset 4, -12
 340              		.cfi_offset 5, -8
 341              		.cfi_offset 14, -4
 342 0002 2DED048B 		vpush.64	{d8, d9}
 343              	.LCFI3:
 344              		.cfi_def_cfa_offset 32
 345              		.cfi_offset 80, -32
 346              		.cfi_offset 81, -28
 347              		.cfi_offset 82, -24
 348              		.cfi_offset 83, -20
 349              	.LVL21:
 350              	.LBB38:
 351              	.LBB39:
  40:Core/Inc/motor.h **** 	float get_max_omega(){return motor_->max_omega;}
  41:Core/Inc/motor.h **** 	void set_direction(enum Direction dir);
  42:Core/Inc/motor.h **** 	void motor_input(float setpoint, float iOmega);
  43:Core/Inc/motor.h **** 	 void set_omega(float omega);
  44:Core/Inc/motor.h **** 	//void set(float omega);
  45:Core/Inc/motor.h **** 
  46:Core/Inc/motor.h **** 	void setPID_constraints(float kp, float ki, float kd,float upper_limit,float lower_limit)
  47:Core/Inc/motor.h **** {
  48:Core/Inc/motor.h ****     Spid.setKp(kp);
 352              		.loc 2 48 0
 353 0006 344C     		ldr	r4, .L26
 354 0008 251D     		adds	r5, r4, #4
 355 000a B0EE080A 		vmov.f32	s0, #3.0e+0
 356 000e 2846     		mov	r0, r5
 357 0010 FFF7FEFF 		bl	_ZN3PID5setKpEf
 358              	.LVL22:
  49:Core/Inc/motor.h ****     Spid.setKi(ki);
 359              		.loc 2 49 0
 360 0014 9FED310A 		vldr.32	s0, .L26+4
 361 0018 2846     		mov	r0, r5
 362 001a FFF7FEFF 		bl	_ZN3PID5setKiEf
 363              	.LVL23:
  50:Core/Inc/motor.h ****     Spid.setKd(kd);
 364              		.loc 2 50 0
 365 001e 9FED309A 		vldr.32	s18, .L26+8
 366 0022 B0EE490A 		vmov.f32	s0, s18
 367 0026 2846     		mov	r0, r5
 368 0028 FFF7FEFF 		bl	_ZN3PID5setKdEf
 369              	.LVL24:
ARM GAS  C:\Users\pawan\AppData\Local\Temp\ccQMv0UH.s 			page 10


  51:Core/Inc/motor.h **** 	Spid.setlimits(upper_limit, lower_limit);
 370              		.loc 2 51 0
 371 002c DFED2D8A 		vldr.32	s17, .L26+12
 372 0030 9FED2D8A 		vldr.32	s16, .L26+16
 373 0034 F0EE680A 		vmov.f32	s1, s17
 374 0038 B0EE480A 		vmov.f32	s0, s16
 375 003c 2846     		mov	r0, r5
 376 003e FFF7FEFF 		bl	_ZN3PID9setlimitsEff
 377              	.LVL25:
 378              	.LBE39:
 379              	.LBE38:
 380              	.LBB40:
 381              	.LBB41:
  48:Core/Inc/motor.h ****     Spid.setKi(ki);
 382              		.loc 2 48 0
 383 0042 04F11C05 		add	r5, r4, #28
 384 0046 9FED290A 		vldr.32	s0, .L26+20
 385 004a 2846     		mov	r0, r5
 386 004c FFF7FEFF 		bl	_ZN3PID5setKpEf
 387              	.LVL26:
  49:Core/Inc/motor.h ****     Spid.setKd(kd);
 388              		.loc 2 49 0
 389 0050 9FED270A 		vldr.32	s0, .L26+24
 390 0054 2846     		mov	r0, r5
 391 0056 FFF7FEFF 		bl	_ZN3PID5setKiEf
 392              	.LVL27:
  50:Core/Inc/motor.h **** 	Spid.setlimits(upper_limit, lower_limit);
 393              		.loc 2 50 0
 394 005a B0EE490A 		vmov.f32	s0, s18
 395 005e 2846     		mov	r0, r5
 396 0060 FFF7FEFF 		bl	_ZN3PID5setKdEf
 397              	.LVL28:
 398              		.loc 2 51 0
 399 0064 F0EE680A 		vmov.f32	s1, s17
 400 0068 B0EE480A 		vmov.f32	s0, s16
 401 006c 2846     		mov	r0, r5
 402 006e FFF7FEFF 		bl	_ZN3PID9setlimitsEff
 403              	.LVL29:
 404              	.LBE41:
 405              	.LBE40:
 406              	.LBB42:
 407              	.LBB43:
  48:Core/Inc/motor.h ****     Spid.setKi(ki);
 408              		.loc 2 48 0
 409 0072 04F13405 		add	r5, r4, #52
 410 0076 9FED1F0A 		vldr.32	s0, .L26+28
 411 007a 2846     		mov	r0, r5
 412 007c FFF7FEFF 		bl	_ZN3PID5setKpEf
 413              	.LVL30:
  49:Core/Inc/motor.h ****     Spid.setKd(kd);
 414              		.loc 2 49 0
 415 0080 9FED1D0A 		vldr.32	s0, .L26+32
 416 0084 2846     		mov	r0, r5
 417 0086 FFF7FEFF 		bl	_ZN3PID5setKiEf
 418              	.LVL31:
  50:Core/Inc/motor.h **** 	Spid.setlimits(upper_limit, lower_limit);
 419              		.loc 2 50 0
ARM GAS  C:\Users\pawan\AppData\Local\Temp\ccQMv0UH.s 			page 11


 420 008a B0EE490A 		vmov.f32	s0, s18
 421 008e 2846     		mov	r0, r5
 422 0090 FFF7FEFF 		bl	_ZN3PID5setKdEf
 423              	.LVL32:
 424              		.loc 2 51 0
 425 0094 F0EE680A 		vmov.f32	s1, s17
 426 0098 B0EE480A 		vmov.f32	s0, s16
 427 009c 2846     		mov	r0, r5
 428 009e FFF7FEFF 		bl	_ZN3PID9setlimitsEff
 429              	.LVL33:
 430              	.LBE43:
 431              	.LBE42:
 432              	.LBB44:
 433              	.LBB45:
  48:Core/Inc/motor.h ****     Spid.setKi(ki);
 434              		.loc 2 48 0
 435 00a2 4C34     		adds	r4, r4, #76
 436 00a4 9FED150A 		vldr.32	s0, .L26+36
 437 00a8 2046     		mov	r0, r4
 438 00aa FFF7FEFF 		bl	_ZN3PID5setKpEf
 439              	.LVL34:
  49:Core/Inc/motor.h ****     Spid.setKd(kd);
 440              		.loc 2 49 0
 441 00ae 9FED140A 		vldr.32	s0, .L26+40
 442 00b2 2046     		mov	r0, r4
 443 00b4 FFF7FEFF 		bl	_ZN3PID5setKiEf
 444              	.LVL35:
  50:Core/Inc/motor.h **** 	Spid.setlimits(upper_limit, lower_limit);
 445              		.loc 2 50 0
 446 00b8 B0EE490A 		vmov.f32	s0, s18
 447 00bc 2046     		mov	r0, r4
 448 00be FFF7FEFF 		bl	_ZN3PID5setKdEf
 449              	.LVL36:
 450              		.loc 2 51 0
 451 00c2 F0EE680A 		vmov.f32	s1, s17
 452 00c6 B0EE480A 		vmov.f32	s0, s16
 453 00ca 2046     		mov	r0, r4
 454 00cc FFF7FEFF 		bl	_ZN3PID9setlimitsEff
 455              	.LVL37:
 456              	.LBE45:
 457              	.LBE44:
  32:Core/Src/robo_init.cpp **** 
 458              		.loc 1 32 0
 459 00d0 BDEC048B 		vldm	sp!, {d8-d9}
 460              	.LCFI4:
 461              		.cfi_restore 82
 462              		.cfi_restore 83
 463              		.cfi_restore 80
 464              		.cfi_restore 81
 465              		.cfi_def_cfa_offset 16
 466 00d4 38BD     		pop	{r3, r4, r5, pc}
 467              	.L27:
 468 00d6 00BF     		.align	2
 469              	.L26:
 470 00d8 00000000 		.word	.LANCHOR0
 471 00dc 9A99993F 		.word	1067030938
 472 00e0 00000000 		.word	0
ARM GAS  C:\Users\pawan\AppData\Local\Temp\ccQMv0UH.s 			page 12


 473 00e4 000018C2 		.word	-1038614528
 474 00e8 00001842 		.word	1108869120
 475 00ec E17AB43F 		.word	1068792545
 476 00f0 C520303E 		.word	1043341509
 477 00f4 9A995940 		.word	1079613850
 478 00f8 713D4A3F 		.word	1061830001
 479 00fc 6666E63F 		.word	1072064102
 480 0100 AE47613E 		.word	1046562734
 481              		.cfi_endproc
 482              	.LFE393:
 484              		.section	.text._Z9robo_initv,"ax",%progbits
 485              		.align	1
 486              		.global	_Z9robo_initv
 487              		.syntax unified
 488              		.thumb
 489              		.thumb_func
 490              		.fpu fpv4-sp-d16
 492              	_Z9robo_initv:
 493              	.LFB392:
  14:Core/Src/robo_init.cpp **** 	printf("\nLet's Begin\n");
 494              		.loc 1 14 0
 495              		.cfi_startproc
 496              		@ args = 0, pretend = 0, frame = 0
 497              		@ frame_needed = 0, uses_anonymous_args = 0
 498 0000 08B5     		push	{r3, lr}
 499              	.LCFI5:
 500              		.cfi_def_cfa_offset 8
 501              		.cfi_offset 3, -8
 502              		.cfi_offset 14, -4
  15:Core/Src/robo_init.cpp **** 	pid_init();
 503              		.loc 1 15 0
 504 0002 0548     		ldr	r0, .L30
 505 0004 FFF7FEFF 		bl	puts
 506              	.LVL38:
  16:Core/Src/robo_init.cpp **** 	encoder_init();	
 507              		.loc 1 16 0
 508 0008 FFF7FEFF 		bl	_ZL8pid_initv
 509              	.LVL39:
  17:Core/Src/robo_init.cpp ****     motor_init();	
 510              		.loc 1 17 0
 511 000c FFF7FEFF 		bl	_Z12encoder_initv
 512              	.LVL40:
  18:Core/Src/robo_init.cpp **** 	
 513              		.loc 1 18 0
 514 0010 FFF7FEFF 		bl	_ZL10motor_initv
 515              	.LVL41:
  20:Core/Src/robo_init.cpp **** 
 516              		.loc 1 20 0
 517 0014 08BD     		pop	{r3, pc}
 518              	.L31:
 519 0016 00BF     		.align	2
 520              	.L30:
 521 0018 00000000 		.word	.LC0
 522              		.cfi_endproc
 523              	.LFE392:
 525              		.section	.text._GLOBAL__sub_I_gMotors,"ax",%progbits
 526              		.align	1
ARM GAS  C:\Users\pawan\AppData\Local\Temp\ccQMv0UH.s 			page 13


 527              		.syntax unified
 528              		.thumb
 529              		.thumb_func
 530              		.fpu fpv4-sp-d16
 532              	_GLOBAL__sub_I_gMotors:
 533              	.LFB397:
 534              		.loc 1 81 0
 535              		.cfi_startproc
 536              		@ args = 0, pretend = 0, frame = 0
 537              		@ frame_needed = 0, uses_anonymous_args = 0
 538 0000 08B5     		push	{r3, lr}
 539              	.LCFI6:
 540              		.cfi_def_cfa_offset 8
 541              		.cfi_offset 3, -8
 542              		.cfi_offset 14, -4
 543              		.loc 1 81 0
 544 0002 4FF6FF71 		movw	r1, #65535
 545 0006 0120     		movs	r0, #1
 546 0008 FFF7FEFF 		bl	_Z41__static_initialization_and_destruction_0ii
 547              	.LVL42:
 548 000c 08BD     		pop	{r3, pc}
 549              		.cfi_endproc
 550              	.LFE397:
 552              		.section	.init_array,"aw",%init_array
 553              		.align	2
 554 0000 00000000 		.word	_GLOBAL__sub_I_gMotors(target1)
 555              		.global	gMotors
 556              		.section	.bss._ZL20motor_configurations,"aw",%nobits
 557              		.align	2
 558              		.set	.LANCHOR1,. + 0
 561              	_ZL20motor_configurations:
 562 0000 00000000 		.space	128
 562      00000000 
 562      00000000 
 562      00000000 
 562      00000000 
 563              		.section	.bss.gMotors,"aw",%nobits
 564              		.align	2
 565              		.set	.LANCHOR0,. + 0
 568              	gMotors:
 569 0000 00000000 		.space	96
 569      00000000 
 569      00000000 
 569      00000000 
 569      00000000 
 570              		.section	.rodata._Z9robo_initv.str1.4,"aMS",%progbits,1
 571              		.align	2
 572              	.LC0:
 573 0000 0A4C6574 		.ascii	"\012Let's Begin\000"
 573      27732042 
 573      6567696E 
 573      00
 574              		.text
 575              	.Letext0:
 576              		.file 4 "c:\\program files (x86)\\gnu tools arm embedded\\7 2017-q4-major\\arm-none-eabi\\include\
 577              		.file 5 "c:\\program files (x86)\\gnu tools arm embedded\\7 2017-q4-major\\arm-none-eabi\\include\
 578              		.file 6 "Drivers/CMSIS/Include/core_cm4.h"
ARM GAS  C:\Users\pawan\AppData\Local\Temp\ccQMv0UH.s 			page 14


 579              		.file 7 "Drivers/CMSIS/Device/ST/STM32F4xx/Include/system_stm32f4xx.h"
 580              		.file 8 "Drivers/CMSIS/Device/ST/STM32F4xx/Include/stm32f407xx.h"
 581              		.file 9 "Drivers/CMSIS/Device/ST/STM32F4xx/Include/stm32f4xx.h"
 582              		.file 10 "Drivers/STM32F4xx_HAL_Driver/Inc/stm32f4xx_hal_def.h"
 583              		.file 11 "Drivers/STM32F4xx_HAL_Driver/Inc/stm32f4xx_hal_dma.h"
 584              		.file 12 "Drivers/STM32F4xx_HAL_Driver/Inc/stm32f4xx_hal_tim.h"
 585              		.file 13 "Drivers/STM32F4xx_HAL_Driver/Inc/stm32f4xx_hal_uart.h"
 586              		.file 14 "Drivers/STM32F4xx_HAL_Driver/Inc/stm32f4xx_hal.h"
 587              		.file 15 "c:\\program files (x86)\\gnu tools arm embedded\\7 2017-q4-major\\arm-none-eabi\\include
 588              		.file 16 "c:\\program files (x86)\\gnu tools arm embedded\\7 2017-q4-major\\arm-none-eabi\\include
 589              		.file 17 "c:\\program files (x86)\\gnu tools arm embedded\\7 2017-q4-major\\lib\\gcc\\arm-none-eab
 590              		.file 18 "c:\\program files (x86)\\gnu tools arm embedded\\7 2017-q4-major\\arm-none-eabi\\include
 591              		.file 19 "Core/Inc/tim.h"
 592              		.file 20 "c:\\program files (x86)\\gnu tools arm embedded\\7 2017-q4-major\\arm-none-eabi\\include
 593              		.file 21 "c:\\program files (x86)\\gnu tools arm embedded\\7 2017-q4-major\\arm-none-eabi\\include
 594              		.file 22 "c:\\program files (x86)\\gnu tools arm embedded\\7 2017-q4-major\\arm-none-eabi\\include
 595              		.file 23 "c:\\program files (x86)\\gnu tools arm embedded\\7 2017-q4-major\\arm-none-eabi\\include
 596              		.file 24 "c:\\program files (x86)\\gnu tools arm embedded\\7 2017-q4-major\\arm-none-eabi\\include
 597              		.file 25 "c:\\program files (x86)\\gnu tools arm embedded\\7 2017-q4-major\\arm-none-eabi\\include
 598              		.file 26 "Core/Inc/usart.h"
 599              		.file 27 "<built-in>"
 600              		.file 28 "Core/Inc/encoder.h"
ARM GAS  C:\Users\pawan\AppData\Local\Temp\ccQMv0UH.s 			page 15

