ARM GAS  C:\Users\pawan\AppData\Local\Temp\cczZFPvq.s 			page 1


   1              		.cpu cortex-m4
   2              		.eabi_attribute 27, 1
   3              		.eabi_attribute 28, 1
   4              		.eabi_attribute 20, 1
   5              		.eabi_attribute 21, 1
   6              		.eabi_attribute 23, 3
   7              		.eabi_attribute 24, 1
   8              		.eabi_attribute 25, 1
   9              		.eabi_attribute 26, 1
  10              		.eabi_attribute 30, 1
  11              		.eabi_attribute 34, 1
  12              		.eabi_attribute 18, 4
  13              		.file	"usart.c"
  14              		.text
  15              	.Ltext0:
  16              		.cfi_sections	.debug_frame
  17              		.section	.text.MX_UART4_Init,"ax",%progbits
  18              		.align	1
  19              		.global	MX_UART4_Init
  20              		.syntax unified
  21              		.thumb
  22              		.thumb_func
  23              		.fpu fpv4-sp-d16
  25              	MX_UART4_Init:
  26              	.LFB133:
  27              		.file 1 "Core/Src/usart.c"
   1:Core/Src/usart.c **** /**
   2:Core/Src/usart.c ****   ******************************************************************************
   3:Core/Src/usart.c ****   * File Name          : USART.c
   4:Core/Src/usart.c ****   * Description        : This file provides code for the configuration
   5:Core/Src/usart.c ****   *                      of the USART instances.
   6:Core/Src/usart.c ****   ******************************************************************************
   7:Core/Src/usart.c ****   * @attention
   8:Core/Src/usart.c ****   *
   9:Core/Src/usart.c ****   * <h2><center>&copy; Copyright (c) 2019 STMicroelectronics.
  10:Core/Src/usart.c ****   * All rights reserved.</center></h2>
  11:Core/Src/usart.c ****   *
  12:Core/Src/usart.c ****   * This software component is licensed by ST under BSD 3-Clause license,
  13:Core/Src/usart.c ****   * the "License"; You may not use this file except in compliance with the
  14:Core/Src/usart.c ****   * License. You may obtain a copy of the License at:
  15:Core/Src/usart.c ****   *                        opensource.org/licenses/BSD-3-Clause
  16:Core/Src/usart.c ****   *
  17:Core/Src/usart.c ****   ******************************************************************************
  18:Core/Src/usart.c ****   */
  19:Core/Src/usart.c **** 
  20:Core/Src/usart.c **** /* Includes ------------------------------------------------------------------*/
  21:Core/Src/usart.c **** #include "usart.h"
  22:Core/Src/usart.c **** 
  23:Core/Src/usart.c **** /* USER CODE BEGIN 0 */
  24:Core/Src/usart.c **** 
  25:Core/Src/usart.c **** /* USER CODE END 0 */
  26:Core/Src/usart.c **** 
  27:Core/Src/usart.c **** UART_HandleTypeDef huart4;
  28:Core/Src/usart.c **** UART_HandleTypeDef huart2;
  29:Core/Src/usart.c **** 
  30:Core/Src/usart.c **** /* UART4 init function */
  31:Core/Src/usart.c **** void MX_UART4_Init(void)
ARM GAS  C:\Users\pawan\AppData\Local\Temp\cczZFPvq.s 			page 2


  32:Core/Src/usart.c **** {
  28              		.loc 1 32 0
  29              		.cfi_startproc
  30              		@ args = 0, pretend = 0, frame = 0
  31              		@ frame_needed = 0, uses_anonymous_args = 0
  32 0000 08B5     		push	{r3, lr}
  33              	.LCFI0:
  34              		.cfi_def_cfa_offset 8
  35              		.cfi_offset 3, -8
  36              		.cfi_offset 14, -4
  33:Core/Src/usart.c **** 
  34:Core/Src/usart.c ****   huart4.Instance = UART4;
  37              		.loc 1 34 0
  38 0002 0A48     		ldr	r0, .L5
  39 0004 0A4B     		ldr	r3, .L5+4
  40 0006 0360     		str	r3, [r0]
  35:Core/Src/usart.c ****   huart4.Init.BaudRate = 115200;
  41              		.loc 1 35 0
  42 0008 4FF4E133 		mov	r3, #115200
  43 000c 4360     		str	r3, [r0, #4]
  36:Core/Src/usart.c ****   huart4.Init.WordLength = UART_WORDLENGTH_8B;
  44              		.loc 1 36 0
  45 000e 0023     		movs	r3, #0
  46 0010 8360     		str	r3, [r0, #8]
  37:Core/Src/usart.c ****   huart4.Init.StopBits = UART_STOPBITS_1;
  47              		.loc 1 37 0
  48 0012 C360     		str	r3, [r0, #12]
  38:Core/Src/usart.c ****   huart4.Init.Parity = UART_PARITY_NONE;
  49              		.loc 1 38 0
  50 0014 0361     		str	r3, [r0, #16]
  39:Core/Src/usart.c ****   huart4.Init.Mode = UART_MODE_TX_RX;
  51              		.loc 1 39 0
  52 0016 0C22     		movs	r2, #12
  53 0018 4261     		str	r2, [r0, #20]
  40:Core/Src/usart.c ****   huart4.Init.HwFlowCtl = UART_HWCONTROL_NONE;
  54              		.loc 1 40 0
  55 001a 8361     		str	r3, [r0, #24]
  41:Core/Src/usart.c ****   huart4.Init.OverSampling = UART_OVERSAMPLING_16;
  56              		.loc 1 41 0
  57 001c C361     		str	r3, [r0, #28]
  42:Core/Src/usart.c ****   if (HAL_UART_Init(&huart4) != HAL_OK)
  58              		.loc 1 42 0
  59 001e FFF7FEFF 		bl	HAL_UART_Init
  60              	.LVL0:
  61 0022 00B9     		cbnz	r0, .L4
  62              	.L1:
  43:Core/Src/usart.c ****   {
  44:Core/Src/usart.c ****     Error_Handler();
  45:Core/Src/usart.c ****   }
  46:Core/Src/usart.c **** 
  47:Core/Src/usart.c **** }
  63              		.loc 1 47 0
  64 0024 08BD     		pop	{r3, pc}
  65              	.L4:
  44:Core/Src/usart.c ****   }
  66              		.loc 1 44 0
  67 0026 FFF7FEFF 		bl	Error_Handler
ARM GAS  C:\Users\pawan\AppData\Local\Temp\cczZFPvq.s 			page 3


  68              	.LVL1:
  69              		.loc 1 47 0
  70 002a FBE7     		b	.L1
  71              	.L6:
  72              		.align	2
  73              	.L5:
  74 002c 00000000 		.word	huart4
  75 0030 004C0040 		.word	1073761280
  76              		.cfi_endproc
  77              	.LFE133:
  79              		.section	.text.MX_USART2_UART_Init,"ax",%progbits
  80              		.align	1
  81              		.global	MX_USART2_UART_Init
  82              		.syntax unified
  83              		.thumb
  84              		.thumb_func
  85              		.fpu fpv4-sp-d16
  87              	MX_USART2_UART_Init:
  88              	.LFB134:
  48:Core/Src/usart.c **** /* USART2 init function */
  49:Core/Src/usart.c **** 
  50:Core/Src/usart.c **** void MX_USART2_UART_Init(void)
  51:Core/Src/usart.c **** {
  89              		.loc 1 51 0
  90              		.cfi_startproc
  91              		@ args = 0, pretend = 0, frame = 0
  92              		@ frame_needed = 0, uses_anonymous_args = 0
  93 0000 08B5     		push	{r3, lr}
  94              	.LCFI1:
  95              		.cfi_def_cfa_offset 8
  96              		.cfi_offset 3, -8
  97              		.cfi_offset 14, -4
  52:Core/Src/usart.c **** 
  53:Core/Src/usart.c ****   huart2.Instance = USART2;
  98              		.loc 1 53 0
  99 0002 0A48     		ldr	r0, .L11
 100 0004 0A4B     		ldr	r3, .L11+4
 101 0006 0360     		str	r3, [r0]
  54:Core/Src/usart.c ****   huart2.Init.BaudRate = 115200;
 102              		.loc 1 54 0
 103 0008 4FF4E133 		mov	r3, #115200
 104 000c 4360     		str	r3, [r0, #4]
  55:Core/Src/usart.c ****   huart2.Init.WordLength = UART_WORDLENGTH_8B;
 105              		.loc 1 55 0
 106 000e 0023     		movs	r3, #0
 107 0010 8360     		str	r3, [r0, #8]
  56:Core/Src/usart.c ****   huart2.Init.StopBits = UART_STOPBITS_1;
 108              		.loc 1 56 0
 109 0012 C360     		str	r3, [r0, #12]
  57:Core/Src/usart.c ****   huart2.Init.Parity = UART_PARITY_NONE;
 110              		.loc 1 57 0
 111 0014 0361     		str	r3, [r0, #16]
  58:Core/Src/usart.c ****   huart2.Init.Mode = UART_MODE_TX_RX;
 112              		.loc 1 58 0
 113 0016 0C22     		movs	r2, #12
 114 0018 4261     		str	r2, [r0, #20]
  59:Core/Src/usart.c ****   huart2.Init.HwFlowCtl = UART_HWCONTROL_NONE;
ARM GAS  C:\Users\pawan\AppData\Local\Temp\cczZFPvq.s 			page 4


 115              		.loc 1 59 0
 116 001a 8361     		str	r3, [r0, #24]
  60:Core/Src/usart.c ****   huart2.Init.OverSampling = UART_OVERSAMPLING_16;
 117              		.loc 1 60 0
 118 001c C361     		str	r3, [r0, #28]
  61:Core/Src/usart.c ****   if (HAL_UART_Init(&huart2) != HAL_OK)
 119              		.loc 1 61 0
 120 001e FFF7FEFF 		bl	HAL_UART_Init
 121              	.LVL2:
 122 0022 00B9     		cbnz	r0, .L10
 123              	.L7:
  62:Core/Src/usart.c ****   {
  63:Core/Src/usart.c ****     Error_Handler();
  64:Core/Src/usart.c ****   }
  65:Core/Src/usart.c **** 
  66:Core/Src/usart.c **** }
 124              		.loc 1 66 0
 125 0024 08BD     		pop	{r3, pc}
 126              	.L10:
  63:Core/Src/usart.c ****   }
 127              		.loc 1 63 0
 128 0026 FFF7FEFF 		bl	Error_Handler
 129              	.LVL3:
 130              		.loc 1 66 0
 131 002a FBE7     		b	.L7
 132              	.L12:
 133              		.align	2
 134              	.L11:
 135 002c 00000000 		.word	huart2
 136 0030 00440040 		.word	1073759232
 137              		.cfi_endproc
 138              	.LFE134:
 140              		.section	.text.HAL_UART_MspInit,"ax",%progbits
 141              		.align	1
 142              		.global	HAL_UART_MspInit
 143              		.syntax unified
 144              		.thumb
 145              		.thumb_func
 146              		.fpu fpv4-sp-d16
 148              	HAL_UART_MspInit:
 149              	.LFB135:
  67:Core/Src/usart.c **** 
  68:Core/Src/usart.c **** void HAL_UART_MspInit(UART_HandleTypeDef* uartHandle)
  69:Core/Src/usart.c **** {
 150              		.loc 1 69 0
 151              		.cfi_startproc
 152              		@ args = 0, pretend = 0, frame = 40
 153              		@ frame_needed = 0, uses_anonymous_args = 0
 154              	.LVL4:
 155 0000 10B5     		push	{r4, lr}
 156              	.LCFI2:
 157              		.cfi_def_cfa_offset 8
 158              		.cfi_offset 4, -8
 159              		.cfi_offset 14, -4
 160 0002 8AB0     		sub	sp, sp, #40
 161              	.LCFI3:
 162              		.cfi_def_cfa_offset 48
ARM GAS  C:\Users\pawan\AppData\Local\Temp\cczZFPvq.s 			page 5


  70:Core/Src/usart.c **** 
  71:Core/Src/usart.c ****   GPIO_InitTypeDef GPIO_InitStruct = {0};
 163              		.loc 1 71 0
 164 0004 0023     		movs	r3, #0
 165 0006 0593     		str	r3, [sp, #20]
 166 0008 0693     		str	r3, [sp, #24]
 167 000a 0793     		str	r3, [sp, #28]
 168 000c 0893     		str	r3, [sp, #32]
 169 000e 0993     		str	r3, [sp, #36]
  72:Core/Src/usart.c ****   if(uartHandle->Instance==UART4)
 170              		.loc 1 72 0
 171 0010 0368     		ldr	r3, [r0]
 172 0012 2D4A     		ldr	r2, .L19
 173 0014 9342     		cmp	r3, r2
 174 0016 04D0     		beq	.L17
  73:Core/Src/usart.c ****   {
  74:Core/Src/usart.c ****   /* USER CODE BEGIN UART4_MspInit 0 */
  75:Core/Src/usart.c **** 
  76:Core/Src/usart.c ****   /* USER CODE END UART4_MspInit 0 */
  77:Core/Src/usart.c ****     /* UART4 clock enable */
  78:Core/Src/usart.c ****     __HAL_RCC_UART4_CLK_ENABLE();
  79:Core/Src/usart.c ****   
  80:Core/Src/usart.c ****     __HAL_RCC_GPIOC_CLK_ENABLE();
  81:Core/Src/usart.c ****     /**UART4 GPIO Configuration    
  82:Core/Src/usart.c ****     PC10     ------> UART4_TX
  83:Core/Src/usart.c ****     PC11     ------> UART4_RX 
  84:Core/Src/usart.c ****     */
  85:Core/Src/usart.c ****     GPIO_InitStruct.Pin = GPIO_PIN_10|GPIO_PIN_11;
  86:Core/Src/usart.c ****     GPIO_InitStruct.Mode = GPIO_MODE_AF_PP;
  87:Core/Src/usart.c ****     GPIO_InitStruct.Pull = GPIO_PULLUP;
  88:Core/Src/usart.c ****     GPIO_InitStruct.Speed = GPIO_SPEED_FREQ_VERY_HIGH;
  89:Core/Src/usart.c ****     GPIO_InitStruct.Alternate = GPIO_AF8_UART4;
  90:Core/Src/usart.c ****     HAL_GPIO_Init(GPIOC, &GPIO_InitStruct);
  91:Core/Src/usart.c **** 
  92:Core/Src/usart.c ****   /* USER CODE BEGIN UART4_MspInit 1 */
  93:Core/Src/usart.c **** 
  94:Core/Src/usart.c ****   /* USER CODE END UART4_MspInit 1 */
  95:Core/Src/usart.c ****   }
  96:Core/Src/usart.c ****   else if(uartHandle->Instance==USART2)
 175              		.loc 1 96 0
 176 0018 2C4A     		ldr	r2, .L19+4
 177 001a 9342     		cmp	r3, r2
 178 001c 27D0     		beq	.L18
 179              	.LVL5:
 180              	.L13:
  97:Core/Src/usart.c ****   {
  98:Core/Src/usart.c ****   /* USER CODE BEGIN USART2_MspInit 0 */
  99:Core/Src/usart.c **** 
 100:Core/Src/usart.c ****   /* USER CODE END USART2_MspInit 0 */
 101:Core/Src/usart.c ****     /* USART2 clock enable */
 102:Core/Src/usart.c ****     __HAL_RCC_USART2_CLK_ENABLE();
 103:Core/Src/usart.c ****   
 104:Core/Src/usart.c ****     __HAL_RCC_GPIOD_CLK_ENABLE();
 105:Core/Src/usart.c ****     /**USART2 GPIO Configuration    
 106:Core/Src/usart.c ****     PD5     ------> USART2_TX
 107:Core/Src/usart.c ****     PD6     ------> USART2_RX 
 108:Core/Src/usart.c ****     */
ARM GAS  C:\Users\pawan\AppData\Local\Temp\cczZFPvq.s 			page 6


 109:Core/Src/usart.c ****     GPIO_InitStruct.Pin = GPIO_PIN_5|GPIO_PIN_6;
 110:Core/Src/usart.c ****     GPIO_InitStruct.Mode = GPIO_MODE_AF_PP;
 111:Core/Src/usart.c ****     GPIO_InitStruct.Pull = GPIO_PULLUP;
 112:Core/Src/usart.c ****     GPIO_InitStruct.Speed = GPIO_SPEED_FREQ_VERY_HIGH;
 113:Core/Src/usart.c ****     GPIO_InitStruct.Alternate = GPIO_AF7_USART2;
 114:Core/Src/usart.c ****     HAL_GPIO_Init(GPIOD, &GPIO_InitStruct);
 115:Core/Src/usart.c **** 
 116:Core/Src/usart.c ****     /* USART2 interrupt Init */
 117:Core/Src/usart.c ****     HAL_NVIC_SetPriority(USART2_IRQn, 0, 0);
 118:Core/Src/usart.c ****     HAL_NVIC_EnableIRQ(USART2_IRQn);
 119:Core/Src/usart.c ****   /* USER CODE BEGIN USART2_MspInit 1 */
 120:Core/Src/usart.c **** 
 121:Core/Src/usart.c ****   /* USER CODE END USART2_MspInit 1 */
 122:Core/Src/usart.c ****   }
 123:Core/Src/usart.c **** }
 181              		.loc 1 123 0
 182 001e 0AB0     		add	sp, sp, #40
 183              	.LCFI4:
 184              		.cfi_remember_state
 185              		.cfi_def_cfa_offset 8
 186              		@ sp needed
 187 0020 10BD     		pop	{r4, pc}
 188              	.LVL6:
 189              	.L17:
 190              	.LCFI5:
 191              		.cfi_restore_state
 192              	.LBB2:
  78:Core/Src/usart.c ****   
 193              		.loc 1 78 0
 194 0022 0021     		movs	r1, #0
 195 0024 0191     		str	r1, [sp, #4]
 196 0026 2A4B     		ldr	r3, .L19+8
 197 0028 1A6C     		ldr	r2, [r3, #64]
 198 002a 42F40022 		orr	r2, r2, #524288
 199 002e 1A64     		str	r2, [r3, #64]
 200 0030 1A6C     		ldr	r2, [r3, #64]
 201 0032 02F40022 		and	r2, r2, #524288
 202 0036 0192     		str	r2, [sp, #4]
 203 0038 019A     		ldr	r2, [sp, #4]
 204              	.LBE2:
 205              	.LBB3:
  80:Core/Src/usart.c ****     /**UART4 GPIO Configuration    
 206              		.loc 1 80 0
 207 003a 0291     		str	r1, [sp, #8]
 208 003c 1A6B     		ldr	r2, [r3, #48]
 209 003e 42F00402 		orr	r2, r2, #4
 210 0042 1A63     		str	r2, [r3, #48]
 211 0044 1B6B     		ldr	r3, [r3, #48]
 212 0046 03F00403 		and	r3, r3, #4
 213 004a 0293     		str	r3, [sp, #8]
 214 004c 029B     		ldr	r3, [sp, #8]
 215              	.LBE3:
  85:Core/Src/usart.c ****     GPIO_InitStruct.Mode = GPIO_MODE_AF_PP;
 216              		.loc 1 85 0
 217 004e 4FF44063 		mov	r3, #3072
 218 0052 0593     		str	r3, [sp, #20]
  86:Core/Src/usart.c ****     GPIO_InitStruct.Pull = GPIO_PULLUP;
ARM GAS  C:\Users\pawan\AppData\Local\Temp\cczZFPvq.s 			page 7


 219              		.loc 1 86 0
 220 0054 0223     		movs	r3, #2
 221 0056 0693     		str	r3, [sp, #24]
  87:Core/Src/usart.c ****     GPIO_InitStruct.Speed = GPIO_SPEED_FREQ_VERY_HIGH;
 222              		.loc 1 87 0
 223 0058 0123     		movs	r3, #1
 224 005a 0793     		str	r3, [sp, #28]
  88:Core/Src/usart.c ****     GPIO_InitStruct.Alternate = GPIO_AF8_UART4;
 225              		.loc 1 88 0
 226 005c 0323     		movs	r3, #3
 227 005e 0893     		str	r3, [sp, #32]
  89:Core/Src/usart.c ****     HAL_GPIO_Init(GPIOC, &GPIO_InitStruct);
 228              		.loc 1 89 0
 229 0060 0823     		movs	r3, #8
 230 0062 0993     		str	r3, [sp, #36]
  90:Core/Src/usart.c **** 
 231              		.loc 1 90 0
 232 0064 05A9     		add	r1, sp, #20
 233 0066 1B48     		ldr	r0, .L19+12
 234              	.LVL7:
 235 0068 FFF7FEFF 		bl	HAL_GPIO_Init
 236              	.LVL8:
 237 006c D7E7     		b	.L13
 238              	.LVL9:
 239              	.L18:
 240              	.LBB4:
 102:Core/Src/usart.c ****   
 241              		.loc 1 102 0
 242 006e 0024     		movs	r4, #0
 243 0070 0394     		str	r4, [sp, #12]
 244 0072 174B     		ldr	r3, .L19+8
 245 0074 1A6C     		ldr	r2, [r3, #64]
 246 0076 42F40032 		orr	r2, r2, #131072
 247 007a 1A64     		str	r2, [r3, #64]
 248 007c 1A6C     		ldr	r2, [r3, #64]
 249 007e 02F40032 		and	r2, r2, #131072
 250 0082 0392     		str	r2, [sp, #12]
 251 0084 039A     		ldr	r2, [sp, #12]
 252              	.LBE4:
 253              	.LBB5:
 104:Core/Src/usart.c ****     /**USART2 GPIO Configuration    
 254              		.loc 1 104 0
 255 0086 0494     		str	r4, [sp, #16]
 256 0088 1A6B     		ldr	r2, [r3, #48]
 257 008a 42F00802 		orr	r2, r2, #8
 258 008e 1A63     		str	r2, [r3, #48]
 259 0090 1B6B     		ldr	r3, [r3, #48]
 260 0092 03F00803 		and	r3, r3, #8
 261 0096 0493     		str	r3, [sp, #16]
 262 0098 049B     		ldr	r3, [sp, #16]
 263              	.LBE5:
 109:Core/Src/usart.c ****     GPIO_InitStruct.Mode = GPIO_MODE_AF_PP;
 264              		.loc 1 109 0
 265 009a 6023     		movs	r3, #96
 266 009c 0593     		str	r3, [sp, #20]
 110:Core/Src/usart.c ****     GPIO_InitStruct.Pull = GPIO_PULLUP;
 267              		.loc 1 110 0
ARM GAS  C:\Users\pawan\AppData\Local\Temp\cczZFPvq.s 			page 8


 268 009e 0223     		movs	r3, #2
 269 00a0 0693     		str	r3, [sp, #24]
 111:Core/Src/usart.c ****     GPIO_InitStruct.Speed = GPIO_SPEED_FREQ_VERY_HIGH;
 270              		.loc 1 111 0
 271 00a2 0123     		movs	r3, #1
 272 00a4 0793     		str	r3, [sp, #28]
 112:Core/Src/usart.c ****     GPIO_InitStruct.Alternate = GPIO_AF7_USART2;
 273              		.loc 1 112 0
 274 00a6 0323     		movs	r3, #3
 275 00a8 0893     		str	r3, [sp, #32]
 113:Core/Src/usart.c ****     HAL_GPIO_Init(GPIOD, &GPIO_InitStruct);
 276              		.loc 1 113 0
 277 00aa 0723     		movs	r3, #7
 278 00ac 0993     		str	r3, [sp, #36]
 114:Core/Src/usart.c **** 
 279              		.loc 1 114 0
 280 00ae 05A9     		add	r1, sp, #20
 281 00b0 0948     		ldr	r0, .L19+16
 282              	.LVL10:
 283 00b2 FFF7FEFF 		bl	HAL_GPIO_Init
 284              	.LVL11:
 117:Core/Src/usart.c ****     HAL_NVIC_EnableIRQ(USART2_IRQn);
 285              		.loc 1 117 0
 286 00b6 2246     		mov	r2, r4
 287 00b8 2146     		mov	r1, r4
 288 00ba 2620     		movs	r0, #38
 289 00bc FFF7FEFF 		bl	HAL_NVIC_SetPriority
 290              	.LVL12:
 118:Core/Src/usart.c ****   /* USER CODE BEGIN USART2_MspInit 1 */
 291              		.loc 1 118 0
 292 00c0 2620     		movs	r0, #38
 293 00c2 FFF7FEFF 		bl	HAL_NVIC_EnableIRQ
 294              	.LVL13:
 295              		.loc 1 123 0
 296 00c6 AAE7     		b	.L13
 297              	.L20:
 298              		.align	2
 299              	.L19:
 300 00c8 004C0040 		.word	1073761280
 301 00cc 00440040 		.word	1073759232
 302 00d0 00380240 		.word	1073887232
 303 00d4 00080240 		.word	1073874944
 304 00d8 000C0240 		.word	1073875968
 305              		.cfi_endproc
 306              	.LFE135:
 308              		.section	.text.HAL_UART_MspDeInit,"ax",%progbits
 309              		.align	1
 310              		.global	HAL_UART_MspDeInit
 311              		.syntax unified
 312              		.thumb
 313              		.thumb_func
 314              		.fpu fpv4-sp-d16
 316              	HAL_UART_MspDeInit:
 317              	.LFB136:
 124:Core/Src/usart.c **** 
 125:Core/Src/usart.c **** void HAL_UART_MspDeInit(UART_HandleTypeDef* uartHandle)
 126:Core/Src/usart.c **** {
ARM GAS  C:\Users\pawan\AppData\Local\Temp\cczZFPvq.s 			page 9


 318              		.loc 1 126 0
 319              		.cfi_startproc
 320              		@ args = 0, pretend = 0, frame = 0
 321              		@ frame_needed = 0, uses_anonymous_args = 0
 322              	.LVL14:
 323 0000 08B5     		push	{r3, lr}
 324              	.LCFI6:
 325              		.cfi_def_cfa_offset 8
 326              		.cfi_offset 3, -8
 327              		.cfi_offset 14, -4
 127:Core/Src/usart.c **** 
 128:Core/Src/usart.c ****   if(uartHandle->Instance==UART4)
 328              		.loc 1 128 0
 329 0002 0368     		ldr	r3, [r0]
 330 0004 104A     		ldr	r2, .L27
 331 0006 9342     		cmp	r3, r2
 332 0008 03D0     		beq	.L25
 129:Core/Src/usart.c ****   {
 130:Core/Src/usart.c ****   /* USER CODE BEGIN UART4_MspDeInit 0 */
 131:Core/Src/usart.c **** 
 132:Core/Src/usart.c ****   /* USER CODE END UART4_MspDeInit 0 */
 133:Core/Src/usart.c ****     /* Peripheral clock disable */
 134:Core/Src/usart.c ****     __HAL_RCC_UART4_CLK_DISABLE();
 135:Core/Src/usart.c ****   
 136:Core/Src/usart.c ****     /**UART4 GPIO Configuration    
 137:Core/Src/usart.c ****     PC10     ------> UART4_TX
 138:Core/Src/usart.c ****     PC11     ------> UART4_RX 
 139:Core/Src/usart.c ****     */
 140:Core/Src/usart.c ****     HAL_GPIO_DeInit(GPIOC, GPIO_PIN_10|GPIO_PIN_11);
 141:Core/Src/usart.c **** 
 142:Core/Src/usart.c ****   /* USER CODE BEGIN UART4_MspDeInit 1 */
 143:Core/Src/usart.c **** 
 144:Core/Src/usart.c ****   /* USER CODE END UART4_MspDeInit 1 */
 145:Core/Src/usart.c ****   }
 146:Core/Src/usart.c ****   else if(uartHandle->Instance==USART2)
 333              		.loc 1 146 0
 334 000a 104A     		ldr	r2, .L27+4
 335 000c 9342     		cmp	r3, r2
 336 000e 0CD0     		beq	.L26
 337              	.LVL15:
 338              	.L21:
 147:Core/Src/usart.c ****   {
 148:Core/Src/usart.c ****   /* USER CODE BEGIN USART2_MspDeInit 0 */
 149:Core/Src/usart.c **** 
 150:Core/Src/usart.c ****   /* USER CODE END USART2_MspDeInit 0 */
 151:Core/Src/usart.c ****     /* Peripheral clock disable */
 152:Core/Src/usart.c ****     __HAL_RCC_USART2_CLK_DISABLE();
 153:Core/Src/usart.c ****   
 154:Core/Src/usart.c ****     /**USART2 GPIO Configuration    
 155:Core/Src/usart.c ****     PD5     ------> USART2_TX
 156:Core/Src/usart.c ****     PD6     ------> USART2_RX 
 157:Core/Src/usart.c ****     */
 158:Core/Src/usart.c ****     HAL_GPIO_DeInit(GPIOD, GPIO_PIN_5|GPIO_PIN_6);
 159:Core/Src/usart.c **** 
 160:Core/Src/usart.c ****     /* USART2 interrupt Deinit */
 161:Core/Src/usart.c ****     HAL_NVIC_DisableIRQ(USART2_IRQn);
 162:Core/Src/usart.c ****   /* USER CODE BEGIN USART2_MspDeInit 1 */
ARM GAS  C:\Users\pawan\AppData\Local\Temp\cczZFPvq.s 			page 10


 163:Core/Src/usart.c **** 
 164:Core/Src/usart.c ****   /* USER CODE END USART2_MspDeInit 1 */
 165:Core/Src/usart.c ****   }
 166:Core/Src/usart.c **** } 
 339              		.loc 1 166 0
 340 0010 08BD     		pop	{r3, pc}
 341              	.LVL16:
 342              	.L25:
 134:Core/Src/usart.c ****   
 343              		.loc 1 134 0
 344 0012 02F5F632 		add	r2, r2, #125952
 345 0016 136C     		ldr	r3, [r2, #64]
 346 0018 23F40023 		bic	r3, r3, #524288
 347 001c 1364     		str	r3, [r2, #64]
 140:Core/Src/usart.c **** 
 348              		.loc 1 140 0
 349 001e 4FF44061 		mov	r1, #3072
 350 0022 0B48     		ldr	r0, .L27+8
 351              	.LVL17:
 352 0024 FFF7FEFF 		bl	HAL_GPIO_DeInit
 353              	.LVL18:
 354 0028 F2E7     		b	.L21
 355              	.LVL19:
 356              	.L26:
 152:Core/Src/usart.c ****   
 357              		.loc 1 152 0
 358 002a 02F5FA32 		add	r2, r2, #128000
 359 002e 136C     		ldr	r3, [r2, #64]
 360 0030 23F40033 		bic	r3, r3, #131072
 361 0034 1364     		str	r3, [r2, #64]
 158:Core/Src/usart.c **** 
 362              		.loc 1 158 0
 363 0036 6021     		movs	r1, #96
 364 0038 0648     		ldr	r0, .L27+12
 365              	.LVL20:
 366 003a FFF7FEFF 		bl	HAL_GPIO_DeInit
 367              	.LVL21:
 161:Core/Src/usart.c ****   /* USER CODE BEGIN USART2_MspDeInit 1 */
 368              		.loc 1 161 0
 369 003e 2620     		movs	r0, #38
 370 0040 FFF7FEFF 		bl	HAL_NVIC_DisableIRQ
 371              	.LVL22:
 372              		.loc 1 166 0
 373 0044 E4E7     		b	.L21
 374              	.L28:
 375 0046 00BF     		.align	2
 376              	.L27:
 377 0048 004C0040 		.word	1073761280
 378 004c 00440040 		.word	1073759232
 379 0050 00080240 		.word	1073874944
 380 0054 000C0240 		.word	1073875968
 381              		.cfi_endproc
 382              	.LFE136:
 384              		.comm	huart2,64,4
 385              		.comm	huart4,64,4
 386              		.text
 387              	.Letext0:
ARM GAS  C:\Users\pawan\AppData\Local\Temp\cczZFPvq.s 			page 11


 388              		.file 2 "c:\\program files (x86)\\gnu tools arm embedded\\7 2017-q4-major\\arm-none-eabi\\include\
 389              		.file 3 "c:\\program files (x86)\\gnu tools arm embedded\\7 2017-q4-major\\arm-none-eabi\\include\
 390              		.file 4 "Drivers/CMSIS/Include/core_cm4.h"
 391              		.file 5 "Drivers/CMSIS/Device/ST/STM32F4xx/Include/system_stm32f4xx.h"
 392              		.file 6 "Drivers/CMSIS/Device/ST/STM32F4xx/Include/stm32f407xx.h"
 393              		.file 7 "Drivers/STM32F4xx_HAL_Driver/Inc/stm32f4xx_hal_def.h"
 394              		.file 8 "Drivers/STM32F4xx_HAL_Driver/Inc/stm32f4xx_hal_gpio.h"
 395              		.file 9 "Drivers/STM32F4xx_HAL_Driver/Inc/stm32f4xx_hal_dma.h"
 396              		.file 10 "Drivers/STM32F4xx_HAL_Driver/Inc/stm32f4xx_hal_uart.h"
 397              		.file 11 "c:\\program files (x86)\\gnu tools arm embedded\\7 2017-q4-major\\arm-none-eabi\\include
 398              		.file 12 "c:\\program files (x86)\\gnu tools arm embedded\\7 2017-q4-major\\arm-none-eabi\\include
 399              		.file 13 "c:\\program files (x86)\\gnu tools arm embedded\\7 2017-q4-major\\lib\\gcc\\arm-none-eab
 400              		.file 14 "c:\\program files (x86)\\gnu tools arm embedded\\7 2017-q4-major\\arm-none-eabi\\include
 401              		.file 15 "Core/Inc/usart.h"
 402              		.file 16 "Drivers/STM32F4xx_HAL_Driver/Inc/stm32f4xx_hal_cortex.h"
 403              		.file 17 "Core/Inc/main.h"
ARM GAS  C:\Users\pawan\AppData\Local\Temp\cczZFPvq.s 			page 12

