ARM GAS  C:\Users\Aasman\AppData\Local\Temp\ccdFozvg.s 			page 1


   1              		.cpu cortex-m4
   2              		.eabi_attribute 27, 1
   3              		.eabi_attribute 28, 1
   4              		.eabi_attribute 20, 1
   5              		.eabi_attribute 21, 1
   6              		.eabi_attribute 23, 3
   7              		.eabi_attribute 24, 1
   8              		.eabi_attribute 25, 1
   9              		.eabi_attribute 26, 1
  10              		.eabi_attribute 30, 1
  11              		.eabi_attribute 34, 1
  12              		.eabi_attribute 18, 4
  13              		.file	"actuator.cpp"
  14              		.text
  15              	.Ltext0:
  16              		.cfi_sections	.debug_frame
  17              		.section	.text._Z41__static_initialization_and_destruction_0ii,"ax",%progbits
  18              		.align	1
  19              		.syntax unified
  20              		.thumb
  21              		.thumb_func
  22              		.fpu fpv4-sp-d16
  24              	_Z41__static_initialization_and_destruction_0ii:
  25              	.LFB425:
  26              		.file 1 "Core/Src/actuator.cpp"
   1:Core/Src/actuator.cpp **** #include "actuator.h"
   2:Core/Src/actuator.cpp **** #include "main.h"
   3:Core/Src/actuator.cpp **** #include "joystick.h"
   4:Core/Src/actuator.cpp **** #include "robo_init.h"
   5:Core/Src/actuator.cpp **** #include "motor.h"
   6:Core/Src/actuator.cpp **** #include "array.h"
   7:Core/Src/actuator.cpp **** 
   8:Core/Src/actuator.cpp **** extern motor gmotor[4];
   9:Core/Src/actuator.cpp **** static float velocity_robot[3] = {0, 0, 0};
  10:Core/Src/actuator.cpp **** uint32_t time = HAL_GetTick();
  11:Core/Src/actuator.cpp **** 
  12:Core/Src/actuator.cpp **** float velocity = 40;
  13:Core/Src/actuator.cpp **** extern JoyStick joystick;
  14:Core/Src/actuator.cpp **** void play(void)
  15:Core/Src/actuator.cpp **** {
  16:Core/Src/actuator.cpp ****     if ((HAL_GetTick() - time) >= 10)
  17:Core/Src/actuator.cpp ****     {
  18:Core/Src/actuator.cpp ****         time = HAL_GetTick();
  19:Core/Src/actuator.cpp ****         task_();
  20:Core/Src/actuator.cpp ****         // printf("%ld\n", (int32_t)(velocity));
  21:Core/Src/actuator.cpp ****     }
  22:Core/Src/actuator.cpp **** }
  23:Core/Src/actuator.cpp **** 
  24:Core/Src/actuator.cpp **** void calculate_wheel_velocity()
  25:Core/Src/actuator.cpp **** {
  26:Core/Src/actuator.cpp ****     // printf("here\n");
  27:Core/Src/actuator.cpp ****     float velocity_motor[4] = {0, 0, 0, 0};
  28:Core/Src/actuator.cpp ****     float coupling_matrix[4][3] = {{0.707, -0.707, 1},
  29:Core/Src/actuator.cpp ****                                    {-0.707, -0.707, 1},
  30:Core/Src/actuator.cpp ****                                    {-0.707, 0.707, 1},
  31:Core/Src/actuator.cpp ****                                    {0.707, 0.707, 1}};
  32:Core/Src/actuator.cpp **** 
ARM GAS  C:\Users\Aasman\AppData\Local\Temp\ccdFozvg.s 			page 2


  33:Core/Src/actuator.cpp ****     for (int i = 0; i < 4; i++)
  34:Core/Src/actuator.cpp ****     {
  35:Core/Src/actuator.cpp ****         velocity_motor[i] = 0;
  36:Core/Src/actuator.cpp ****         for (int j = 0; j < 3; j++)
  37:Core/Src/actuator.cpp ****         {
  38:Core/Src/actuator.cpp ****             velocity_motor[i] += velocity_robot[j] * coupling_matrix[i][j];
  39:Core/Src/actuator.cpp ****         }
  40:Core/Src/actuator.cpp ****     }
  41:Core/Src/actuator.cpp **** 
  42:Core/Src/actuator.cpp ****     // arrPrint(velocity_robot);
  43:Core/Src/actuator.cpp ****     // printf("\t");
  44:Core/Src/actuator.cpp ****     // arrPrint(velocity_motor);
  45:Core/Src/actuator.cpp ****     // printf("\n");
  46:Core/Src/actuator.cpp **** 
  47:Core/Src/actuator.cpp ****     for (int i = 0; i < 4; i++)
  48:Core/Src/actuator.cpp ****     {
  49:Core/Src/actuator.cpp ****         gmotor[i].motor_input(velocity_motor[i], get_data(i)); //pid
  50:Core/Src/actuator.cpp ****     }
  51:Core/Src/actuator.cpp **** }
  52:Core/Src/actuator.cpp **** 
  53:Core/Src/actuator.cpp **** void forward()
  54:Core/Src/actuator.cpp **** {
  55:Core/Src/actuator.cpp ****     velocity_robot[0] = 0;
  56:Core/Src/actuator.cpp ****     velocity_robot[1] = -velocity;
  57:Core/Src/actuator.cpp ****     velocity_robot[2] = 0;
  58:Core/Src/actuator.cpp ****     calculate_wheel_velocity();
  59:Core/Src/actuator.cpp **** }
  60:Core/Src/actuator.cpp **** 
  61:Core/Src/actuator.cpp **** void back()
  62:Core/Src/actuator.cpp **** {
  63:Core/Src/actuator.cpp ****     velocity_robot[0] = 0;
  64:Core/Src/actuator.cpp ****     velocity_robot[1] = +velocity;
  65:Core/Src/actuator.cpp ****     velocity_robot[2] = 0;
  66:Core/Src/actuator.cpp ****     calculate_wheel_velocity();
  67:Core/Src/actuator.cpp **** }
  68:Core/Src/actuator.cpp **** 
  69:Core/Src/actuator.cpp **** void left()
  70:Core/Src/actuator.cpp **** {
  71:Core/Src/actuator.cpp ****     velocity_robot[0] = -velocity;
  72:Core/Src/actuator.cpp ****     velocity_robot[1] = 0;
  73:Core/Src/actuator.cpp ****     velocity_robot[2] = 0;
  74:Core/Src/actuator.cpp ****     calculate_wheel_velocity();
  75:Core/Src/actuator.cpp **** }
  76:Core/Src/actuator.cpp **** 
  77:Core/Src/actuator.cpp **** void right()
  78:Core/Src/actuator.cpp **** {
  79:Core/Src/actuator.cpp ****     velocity_robot[0] = velocity;
  80:Core/Src/actuator.cpp ****     velocity_robot[1] = 0;
  81:Core/Src/actuator.cpp ****     velocity_robot[2] = 0;
  82:Core/Src/actuator.cpp ****     calculate_wheel_velocity();
  83:Core/Src/actuator.cpp **** }
  84:Core/Src/actuator.cpp **** 
  85:Core/Src/actuator.cpp **** void clockwise()
  86:Core/Src/actuator.cpp **** {
  87:Core/Src/actuator.cpp ****     velocity_robot[0] = 0;
  88:Core/Src/actuator.cpp ****     velocity_robot[1] = 0;
  89:Core/Src/actuator.cpp ****     velocity_robot[2] = 5;
ARM GAS  C:\Users\Aasman\AppData\Local\Temp\ccdFozvg.s 			page 3


  90:Core/Src/actuator.cpp ****     calculate_wheel_velocity();
  91:Core/Src/actuator.cpp **** }
  92:Core/Src/actuator.cpp **** 
  93:Core/Src/actuator.cpp **** void anticlockwise()
  94:Core/Src/actuator.cpp **** {
  95:Core/Src/actuator.cpp ****     velocity_robot[0] = 0;
  96:Core/Src/actuator.cpp ****     velocity_robot[1] = 0;
  97:Core/Src/actuator.cpp ****     velocity_robot[2] = -5;
  98:Core/Src/actuator.cpp ****     calculate_wheel_velocity();
  99:Core/Src/actuator.cpp **** }
 100:Core/Src/actuator.cpp **** 
 101:Core/Src/actuator.cpp **** void stop()
 102:Core/Src/actuator.cpp **** {
 103:Core/Src/actuator.cpp ****     velocity_robot[0] = 0;
 104:Core/Src/actuator.cpp ****     velocity_robot[1] = 0;
 105:Core/Src/actuator.cpp ****     velocity_robot[2] = 0;
 106:Core/Src/actuator.cpp ****     calculate_wheel_velocity();
 107:Core/Src/actuator.cpp **** }
 108:Core/Src/actuator.cpp **** 
 109:Core/Src/actuator.cpp **** void set_Velocity(float gVelocity)
 110:Core/Src/actuator.cpp **** {
 111:Core/Src/actuator.cpp ****     velocity = gVelocity;
 112:Core/Src/actuator.cpp **** }
  27              		.loc 1 112 0
  28              		.cfi_startproc
  29              		@ args = 0, pretend = 0, frame = 0
  30              		@ frame_needed = 0, uses_anonymous_args = 0
  31              	.LVL0:
  32 0000 0128     		cmp	r0, #1
  33 0002 00D0     		beq	.L7
  34 0004 7047     		bx	lr
  35              	.L7:
  36              		.loc 1 112 0 is_stmt 0 discriminator 1
  37 0006 08B5     		push	{r3, lr}
  38              	.LCFI0:
  39              		.cfi_def_cfa_offset 8
  40              		.cfi_offset 3, -8
  41              		.cfi_offset 14, -4
  42              		.loc 1 112 0 is_stmt 1 discriminator 1
  43 0008 4FF6FF73 		movw	r3, #65535
  44 000c 9942     		cmp	r1, r3
  45 000e 00D0     		beq	.L8
  46              	.LVL1:
  47              	.L1:
  48              		.loc 1 112 0 is_stmt 0
  49 0010 08BD     		pop	{r3, pc}
  50              	.LVL2:
  51              	.L8:
  10:Core/Src/actuator.cpp **** 
  52              		.loc 1 10 0 is_stmt 1
  53 0012 FFF7FEFF 		bl	HAL_GetTick
  54              	.LVL3:
  55 0016 014B     		ldr	r3, .L9
  56 0018 1860     		str	r0, [r3]
  57              		.loc 1 112 0
  58 001a F9E7     		b	.L1
  59              	.L10:
ARM GAS  C:\Users\Aasman\AppData\Local\Temp\ccdFozvg.s 			page 4


  60              		.align	2
  61              	.L9:
  62 001c 00000000 		.word	.LANCHOR0
  63              		.cfi_endproc
  64              	.LFE425:
  66              		.section	.text._Z4playv,"ax",%progbits
  67              		.align	1
  68              		.global	_Z4playv
  69              		.syntax unified
  70              		.thumb
  71              		.thumb_func
  72              		.fpu fpv4-sp-d16
  74              	_Z4playv:
  75              	.LFB415:
  15:Core/Src/actuator.cpp ****     if ((HAL_GetTick() - time) >= 10)
  76              		.loc 1 15 0
  77              		.cfi_startproc
  78              		@ args = 0, pretend = 0, frame = 0
  79              		@ frame_needed = 0, uses_anonymous_args = 0
  80 0000 08B5     		push	{r3, lr}
  81              	.LCFI1:
  82              		.cfi_def_cfa_offset 8
  83              		.cfi_offset 3, -8
  84              		.cfi_offset 14, -4
  16:Core/Src/actuator.cpp ****     {
  85              		.loc 1 16 0
  86 0002 FFF7FEFF 		bl	HAL_GetTick
  87              	.LVL4:
  88 0006 064B     		ldr	r3, .L15
  89 0008 1B68     		ldr	r3, [r3]
  90 000a C01A     		subs	r0, r0, r3
  91 000c 0928     		cmp	r0, #9
  92 000e 00D8     		bhi	.L14
  93              	.L11:
  22:Core/Src/actuator.cpp **** 
  94              		.loc 1 22 0
  95 0010 08BD     		pop	{r3, pc}
  96              	.L14:
  18:Core/Src/actuator.cpp ****         task_();
  97              		.loc 1 18 0
  98 0012 FFF7FEFF 		bl	HAL_GetTick
  99              	.LVL5:
 100 0016 024B     		ldr	r3, .L15
 101 0018 1860     		str	r0, [r3]
  19:Core/Src/actuator.cpp ****         // printf("%ld\n", (int32_t)(velocity));
 102              		.loc 1 19 0
 103 001a FFF7FEFF 		bl	_Z5task_v
 104              	.LVL6:
  22:Core/Src/actuator.cpp **** 
 105              		.loc 1 22 0
 106 001e F7E7     		b	.L11
 107              	.L16:
 108              		.align	2
 109              	.L15:
 110 0020 00000000 		.word	.LANCHOR0
 111              		.cfi_endproc
 112              	.LFE415:
ARM GAS  C:\Users\Aasman\AppData\Local\Temp\ccdFozvg.s 			page 5


 114              		.section	.text._Z24calculate_wheel_velocityv,"ax",%progbits
 115              		.align	1
 116              		.global	_Z24calculate_wheel_velocityv
 117              		.syntax unified
 118              		.thumb
 119              		.thumb_func
 120              		.fpu fpv4-sp-d16
 122              	_Z24calculate_wheel_velocityv:
 123              	.LFB416:
  25:Core/Src/actuator.cpp ****     // printf("here\n");
 124              		.loc 1 25 0
 125              		.cfi_startproc
 126              		@ args = 0, pretend = 0, frame = 64
 127              		@ frame_needed = 0, uses_anonymous_args = 0
 128 0000 70B5     		push	{r4, r5, r6, lr}
 129              	.LCFI2:
 130              		.cfi_def_cfa_offset 16
 131              		.cfi_offset 4, -16
 132              		.cfi_offset 5, -12
 133              		.cfi_offset 6, -8
 134              		.cfi_offset 14, -4
 135 0002 2DED028B 		vpush.64	{d8}
 136              	.LCFI3:
 137              		.cfi_def_cfa_offset 24
 138              		.cfi_offset 80, -24
 139              		.cfi_offset 81, -20
 140 0006 90B0     		sub	sp, sp, #64
 141              	.LCFI4:
 142              		.cfi_def_cfa_offset 88
  27:Core/Src/actuator.cpp ****     float coupling_matrix[4][3] = {{0.707, -0.707, 1},
 143              		.loc 1 27 0
 144 0008 0024     		movs	r4, #0
 145 000a 0C94     		str	r4, [sp, #48]
 146 000c 0D94     		str	r4, [sp, #52]
 147 000e 0E94     		str	r4, [sp, #56]
 148 0010 0F94     		str	r4, [sp, #60]
  28:Core/Src/actuator.cpp ****                                    {-0.707, -0.707, 1},
 149              		.loc 1 28 0
 150 0012 6D46     		mov	r5, sp
 151 0014 254E     		ldr	r6, .L25
 152 0016 0FCE     		ldmia	r6!, {r0, r1, r2, r3}
 153 0018 0FC5     		stmia	r5!, {r0, r1, r2, r3}
 154 001a 0FCE     		ldmia	r6!, {r0, r1, r2, r3}
 155 001c 0FC5     		stmia	r5!, {r0, r1, r2, r3}
 156 001e 96E80F00 		ldm	r6, {r0, r1, r2, r3}
 157 0022 85E80F00 		stm	r5, {r0, r1, r2, r3}
 158              	.LVL7:
 159              	.LBB2:
  33:Core/Src/actuator.cpp ****     {
 160              		.loc 1 33 0
 161 0026 2146     		mov	r1, r4
 162 0028 00E0     		b	.L21
 163              	.LVL8:
 164              	.L19:
  33:Core/Src/actuator.cpp ****     {
 165              		.loc 1 33 0 is_stmt 0 discriminator 2
 166 002a 0131     		adds	r1, r1, #1
ARM GAS  C:\Users\Aasman\AppData\Local\Temp\ccdFozvg.s 			page 6


 167              	.LVL9:
 168              	.L21:
  33:Core/Src/actuator.cpp ****     {
 169              		.loc 1 33 0 discriminator 1
 170 002c 0329     		cmp	r1, #3
 171 002e 21DC     		bgt	.L23
 172              	.LBB3:
  35:Core/Src/actuator.cpp ****         for (int j = 0; j < 3; j++)
 173              		.loc 1 35 0 is_stmt 1
 174 0030 0022     		movs	r2, #0
 175 0032 10AB     		add	r3, sp, #64
 176 0034 03EB8103 		add	r3, r3, r1, lsl #2
 177 0038 43F8102C 		str	r2, [r3, #-16]	@ float
 178              	.LVL10:
 179              	.LBB4:
  36:Core/Src/actuator.cpp ****         {
 180              		.loc 1 36 0
 181 003c 0022     		movs	r2, #0
 182              	.LVL11:
 183              	.L20:
  36:Core/Src/actuator.cpp ****         {
 184              		.loc 1 36 0 is_stmt 0 discriminator 3
 185 003e 022A     		cmp	r2, #2
 186 0040 F3DC     		bgt	.L19
  38:Core/Src/actuator.cpp ****         }
 187              		.loc 1 38 0 is_stmt 1 discriminator 2
 188 0042 1B4B     		ldr	r3, .L25+4
 189 0044 03EB8203 		add	r3, r3, r2, lsl #2
 190 0048 D3ED007A 		vldr.32	s15, [r3]
 191 004c 01EB4103 		add	r3, r1, r1, lsl #1
 192 0050 1344     		add	r3, r3, r2
 193 0052 10A8     		add	r0, sp, #64
 194 0054 00EB8303 		add	r3, r0, r3, lsl #2
 195 0058 13ED107A 		vldr.32	s14, [r3, #-64]
 196 005c 27EE877A 		vmul.f32	s14, s15, s14
 197 0060 00EB8103 		add	r3, r0, r1, lsl #2
 198 0064 53ED047A 		vldr.32	s15, [r3, #-16]
 199 0068 77EE877A 		vadd.f32	s15, s15, s14
 200 006c 43ED047A 		vstr.32	s15, [r3, #-16]
  36:Core/Src/actuator.cpp ****         {
 201              		.loc 1 36 0 discriminator 2
 202 0070 0132     		adds	r2, r2, #1
 203              	.LVL12:
 204 0072 E4E7     		b	.L20
 205              	.LVL13:
 206              	.L23:
 207              	.LBE4:
 208              	.LBE3:
 209              	.LBE2:
 210              	.LBB5:
  47:Core/Src/actuator.cpp ****     {
 211              		.loc 1 47 0
 212 0074 0024     		movs	r4, #0
 213              	.LVL14:
 214              	.L18:
  47:Core/Src/actuator.cpp ****     {
 215              		.loc 1 47 0 is_stmt 0 discriminator 3
ARM GAS  C:\Users\Aasman\AppData\Local\Temp\ccdFozvg.s 			page 7


 216 0076 032C     		cmp	r4, #3
 217 0078 14DC     		bgt	.L17
  49:Core/Src/actuator.cpp ****     }
 218              		.loc 1 49 0 is_stmt 1 discriminator 2
 219 007a 10AB     		add	r3, sp, #64
 220 007c 03EB8403 		add	r3, r3, r4, lsl #2
 221 0080 13ED048A 		vldr.32	s16, [r3, #-16]
 222 0084 2046     		mov	r0, r4
 223 0086 FFF7FEFF 		bl	_Z8get_datai
 224              	.LVL15:
 225 008a 04EB4402 		add	r2, r4, r4, lsl #1
 226 008e D300     		lsls	r3, r2, #3
 227 0090 F0EE400A 		vmov.f32	s1, s0
 228 0094 B0EE480A 		vmov.f32	s0, s16
 229 0098 0648     		ldr	r0, .L25+8
 230 009a 1844     		add	r0, r0, r3
 231 009c FFF7FEFF 		bl	_ZN5motor11motor_inputEff
 232              	.LVL16:
  47:Core/Src/actuator.cpp ****     {
 233              		.loc 1 47 0 discriminator 2
 234 00a0 0134     		adds	r4, r4, #1
 235              	.LVL17:
 236 00a2 E8E7     		b	.L18
 237              	.L17:
 238              	.LBE5:
  51:Core/Src/actuator.cpp **** 
 239              		.loc 1 51 0
 240 00a4 10B0     		add	sp, sp, #64
 241              	.LCFI5:
 242              		.cfi_def_cfa_offset 24
 243              		@ sp needed
 244 00a6 BDEC028B 		vldm	sp!, {d8}
 245              	.LCFI6:
 246              		.cfi_restore 80
 247              		.cfi_restore 81
 248              		.cfi_def_cfa_offset 16
 249 00aa 70BD     		pop	{r4, r5, r6, pc}
 250              	.LVL18:
 251              	.L26:
 252              		.align	2
 253              	.L25:
 254 00ac 00000000 		.word	.LANCHOR1
 255 00b0 00000000 		.word	.LANCHOR2
 256 00b4 00000000 		.word	gmotor
 257              		.cfi_endproc
 258              	.LFE416:
 260              		.section	.text._Z7forwardv,"ax",%progbits
 261              		.align	1
 262              		.global	_Z7forwardv
 263              		.syntax unified
 264              		.thumb
 265              		.thumb_func
 266              		.fpu fpv4-sp-d16
 268              	_Z7forwardv:
 269              	.LFB417:
  54:Core/Src/actuator.cpp ****     velocity_robot[0] = 0;
 270              		.loc 1 54 0
ARM GAS  C:\Users\Aasman\AppData\Local\Temp\ccdFozvg.s 			page 8


 271              		.cfi_startproc
 272              		@ args = 0, pretend = 0, frame = 0
 273              		@ frame_needed = 0, uses_anonymous_args = 0
 274 0000 08B5     		push	{r3, lr}
 275              	.LCFI7:
 276              		.cfi_def_cfa_offset 8
 277              		.cfi_offset 3, -8
 278              		.cfi_offset 14, -4
  55:Core/Src/actuator.cpp ****     velocity_robot[1] = -velocity;
 279              		.loc 1 55 0
 280 0002 074B     		ldr	r3, .L29
 281 0004 0022     		movs	r2, #0
 282 0006 1A60     		str	r2, [r3]	@ float
  56:Core/Src/actuator.cpp ****     velocity_robot[2] = 0;
 283              		.loc 1 56 0
 284 0008 0649     		ldr	r1, .L29+4
 285 000a D1ED007A 		vldr.32	s15, [r1]
 286 000e F1EE677A 		vneg.f32	s15, s15
 287 0012 C3ED017A 		vstr.32	s15, [r3, #4]
  57:Core/Src/actuator.cpp ****     calculate_wheel_velocity();
 288              		.loc 1 57 0
 289 0016 9A60     		str	r2, [r3, #8]	@ float
  58:Core/Src/actuator.cpp **** }
 290              		.loc 1 58 0
 291 0018 FFF7FEFF 		bl	_Z24calculate_wheel_velocityv
 292              	.LVL19:
  59:Core/Src/actuator.cpp **** 
 293              		.loc 1 59 0
 294 001c 08BD     		pop	{r3, pc}
 295              	.L30:
 296 001e 00BF     		.align	2
 297              	.L29:
 298 0020 00000000 		.word	.LANCHOR2
 299 0024 00000000 		.word	.LANCHOR3
 300              		.cfi_endproc
 301              	.LFE417:
 303              		.section	.text._Z4backv,"ax",%progbits
 304              		.align	1
 305              		.global	_Z4backv
 306              		.syntax unified
 307              		.thumb
 308              		.thumb_func
 309              		.fpu fpv4-sp-d16
 311              	_Z4backv:
 312              	.LFB418:
  62:Core/Src/actuator.cpp ****     velocity_robot[0] = 0;
 313              		.loc 1 62 0
 314              		.cfi_startproc
 315              		@ args = 0, pretend = 0, frame = 0
 316              		@ frame_needed = 0, uses_anonymous_args = 0
 317 0000 08B5     		push	{r3, lr}
 318              	.LCFI8:
 319              		.cfi_def_cfa_offset 8
 320              		.cfi_offset 3, -8
 321              		.cfi_offset 14, -4
  63:Core/Src/actuator.cpp ****     velocity_robot[1] = +velocity;
 322              		.loc 1 63 0
ARM GAS  C:\Users\Aasman\AppData\Local\Temp\ccdFozvg.s 			page 9


 323 0002 054B     		ldr	r3, .L33
 324 0004 0022     		movs	r2, #0
 325 0006 1A60     		str	r2, [r3]	@ float
  64:Core/Src/actuator.cpp ****     velocity_robot[2] = 0;
 326              		.loc 1 64 0
 327 0008 0449     		ldr	r1, .L33+4
 328 000a 0968     		ldr	r1, [r1]	@ float
 329 000c 5960     		str	r1, [r3, #4]	@ float
  65:Core/Src/actuator.cpp ****     calculate_wheel_velocity();
 330              		.loc 1 65 0
 331 000e 9A60     		str	r2, [r3, #8]	@ float
  66:Core/Src/actuator.cpp **** }
 332              		.loc 1 66 0
 333 0010 FFF7FEFF 		bl	_Z24calculate_wheel_velocityv
 334              	.LVL20:
  67:Core/Src/actuator.cpp **** 
 335              		.loc 1 67 0
 336 0014 08BD     		pop	{r3, pc}
 337              	.L34:
 338 0016 00BF     		.align	2
 339              	.L33:
 340 0018 00000000 		.word	.LANCHOR2
 341 001c 00000000 		.word	.LANCHOR3
 342              		.cfi_endproc
 343              	.LFE418:
 345              		.section	.text._Z4leftv,"ax",%progbits
 346              		.align	1
 347              		.global	_Z4leftv
 348              		.syntax unified
 349              		.thumb
 350              		.thumb_func
 351              		.fpu fpv4-sp-d16
 353              	_Z4leftv:
 354              	.LFB419:
  70:Core/Src/actuator.cpp ****     velocity_robot[0] = -velocity;
 355              		.loc 1 70 0
 356              		.cfi_startproc
 357              		@ args = 0, pretend = 0, frame = 0
 358              		@ frame_needed = 0, uses_anonymous_args = 0
 359 0000 08B5     		push	{r3, lr}
 360              	.LCFI9:
 361              		.cfi_def_cfa_offset 8
 362              		.cfi_offset 3, -8
 363              		.cfi_offset 14, -4
  71:Core/Src/actuator.cpp ****     velocity_robot[1] = 0;
 364              		.loc 1 71 0
 365 0002 074B     		ldr	r3, .L37
 366 0004 D3ED007A 		vldr.32	s15, [r3]
 367 0008 F1EE677A 		vneg.f32	s15, s15
 368 000c 054B     		ldr	r3, .L37+4
 369 000e C3ED007A 		vstr.32	s15, [r3]
  72:Core/Src/actuator.cpp ****     velocity_robot[2] = 0;
 370              		.loc 1 72 0
 371 0012 0022     		movs	r2, #0
 372 0014 5A60     		str	r2, [r3, #4]	@ float
  73:Core/Src/actuator.cpp ****     calculate_wheel_velocity();
 373              		.loc 1 73 0
ARM GAS  C:\Users\Aasman\AppData\Local\Temp\ccdFozvg.s 			page 10


 374 0016 9A60     		str	r2, [r3, #8]	@ float
  74:Core/Src/actuator.cpp **** }
 375              		.loc 1 74 0
 376 0018 FFF7FEFF 		bl	_Z24calculate_wheel_velocityv
 377              	.LVL21:
  75:Core/Src/actuator.cpp **** 
 378              		.loc 1 75 0
 379 001c 08BD     		pop	{r3, pc}
 380              	.L38:
 381 001e 00BF     		.align	2
 382              	.L37:
 383 0020 00000000 		.word	.LANCHOR3
 384 0024 00000000 		.word	.LANCHOR2
 385              		.cfi_endproc
 386              	.LFE419:
 388              		.section	.text._Z5rightv,"ax",%progbits
 389              		.align	1
 390              		.global	_Z5rightv
 391              		.syntax unified
 392              		.thumb
 393              		.thumb_func
 394              		.fpu fpv4-sp-d16
 396              	_Z5rightv:
 397              	.LFB420:
  78:Core/Src/actuator.cpp ****     velocity_robot[0] = velocity;
 398              		.loc 1 78 0
 399              		.cfi_startproc
 400              		@ args = 0, pretend = 0, frame = 0
 401              		@ frame_needed = 0, uses_anonymous_args = 0
 402 0000 08B5     		push	{r3, lr}
 403              	.LCFI10:
 404              		.cfi_def_cfa_offset 8
 405              		.cfi_offset 3, -8
 406              		.cfi_offset 14, -4
  79:Core/Src/actuator.cpp ****     velocity_robot[1] = 0;
 407              		.loc 1 79 0
 408 0002 054B     		ldr	r3, .L41
 409 0004 054A     		ldr	r2, .L41+4
 410 0006 1268     		ldr	r2, [r2]	@ float
 411 0008 1A60     		str	r2, [r3]	@ float
  80:Core/Src/actuator.cpp ****     velocity_robot[2] = 0;
 412              		.loc 1 80 0
 413 000a 0022     		movs	r2, #0
 414 000c 5A60     		str	r2, [r3, #4]	@ float
  81:Core/Src/actuator.cpp ****     calculate_wheel_velocity();
 415              		.loc 1 81 0
 416 000e 9A60     		str	r2, [r3, #8]	@ float
  82:Core/Src/actuator.cpp **** }
 417              		.loc 1 82 0
 418 0010 FFF7FEFF 		bl	_Z24calculate_wheel_velocityv
 419              	.LVL22:
  83:Core/Src/actuator.cpp **** 
 420              		.loc 1 83 0
 421 0014 08BD     		pop	{r3, pc}
 422              	.L42:
 423 0016 00BF     		.align	2
 424              	.L41:
ARM GAS  C:\Users\Aasman\AppData\Local\Temp\ccdFozvg.s 			page 11


 425 0018 00000000 		.word	.LANCHOR2
 426 001c 00000000 		.word	.LANCHOR3
 427              		.cfi_endproc
 428              	.LFE420:
 430              		.section	.text._Z9clockwisev,"ax",%progbits
 431              		.align	1
 432              		.global	_Z9clockwisev
 433              		.syntax unified
 434              		.thumb
 435              		.thumb_func
 436              		.fpu fpv4-sp-d16
 438              	_Z9clockwisev:
 439              	.LFB421:
  86:Core/Src/actuator.cpp ****     velocity_robot[0] = 0;
 440              		.loc 1 86 0
 441              		.cfi_startproc
 442              		@ args = 0, pretend = 0, frame = 0
 443              		@ frame_needed = 0, uses_anonymous_args = 0
 444 0000 08B5     		push	{r3, lr}
 445              	.LCFI11:
 446              		.cfi_def_cfa_offset 8
 447              		.cfi_offset 3, -8
 448              		.cfi_offset 14, -4
  87:Core/Src/actuator.cpp ****     velocity_robot[1] = 0;
 449              		.loc 1 87 0
 450 0002 044B     		ldr	r3, .L45
 451 0004 0022     		movs	r2, #0
 452 0006 1A60     		str	r2, [r3]	@ float
  88:Core/Src/actuator.cpp ****     velocity_robot[2] = 5;
 453              		.loc 1 88 0
 454 0008 5A60     		str	r2, [r3, #4]	@ float
  89:Core/Src/actuator.cpp ****     calculate_wheel_velocity();
 455              		.loc 1 89 0
 456 000a 034A     		ldr	r2, .L45+4
 457 000c 9A60     		str	r2, [r3, #8]	@ float
  90:Core/Src/actuator.cpp **** }
 458              		.loc 1 90 0
 459 000e FFF7FEFF 		bl	_Z24calculate_wheel_velocityv
 460              	.LVL23:
  91:Core/Src/actuator.cpp **** 
 461              		.loc 1 91 0
 462 0012 08BD     		pop	{r3, pc}
 463              	.L46:
 464              		.align	2
 465              	.L45:
 466 0014 00000000 		.word	.LANCHOR2
 467 0018 0000A040 		.word	1084227584
 468              		.cfi_endproc
 469              	.LFE421:
 471              		.section	.text._Z13anticlockwisev,"ax",%progbits
 472              		.align	1
 473              		.global	_Z13anticlockwisev
 474              		.syntax unified
 475              		.thumb
 476              		.thumb_func
 477              		.fpu fpv4-sp-d16
 479              	_Z13anticlockwisev:
ARM GAS  C:\Users\Aasman\AppData\Local\Temp\ccdFozvg.s 			page 12


 480              	.LFB422:
  94:Core/Src/actuator.cpp ****     velocity_robot[0] = 0;
 481              		.loc 1 94 0
 482              		.cfi_startproc
 483              		@ args = 0, pretend = 0, frame = 0
 484              		@ frame_needed = 0, uses_anonymous_args = 0
 485 0000 08B5     		push	{r3, lr}
 486              	.LCFI12:
 487              		.cfi_def_cfa_offset 8
 488              		.cfi_offset 3, -8
 489              		.cfi_offset 14, -4
  95:Core/Src/actuator.cpp ****     velocity_robot[1] = 0;
 490              		.loc 1 95 0
 491 0002 044B     		ldr	r3, .L49
 492 0004 0022     		movs	r2, #0
 493 0006 1A60     		str	r2, [r3]	@ float
  96:Core/Src/actuator.cpp ****     velocity_robot[2] = -5;
 494              		.loc 1 96 0
 495 0008 5A60     		str	r2, [r3, #4]	@ float
  97:Core/Src/actuator.cpp ****     calculate_wheel_velocity();
 496              		.loc 1 97 0
 497 000a 034A     		ldr	r2, .L49+4
 498 000c 9A60     		str	r2, [r3, #8]	@ float
  98:Core/Src/actuator.cpp **** }
 499              		.loc 1 98 0
 500 000e FFF7FEFF 		bl	_Z24calculate_wheel_velocityv
 501              	.LVL24:
  99:Core/Src/actuator.cpp **** 
 502              		.loc 1 99 0
 503 0012 08BD     		pop	{r3, pc}
 504              	.L50:
 505              		.align	2
 506              	.L49:
 507 0014 00000000 		.word	.LANCHOR2
 508 0018 0000A0C0 		.word	-1063256064
 509              		.cfi_endproc
 510              	.LFE422:
 512              		.section	.text._Z4stopv,"ax",%progbits
 513              		.align	1
 514              		.global	_Z4stopv
 515              		.syntax unified
 516              		.thumb
 517              		.thumb_func
 518              		.fpu fpv4-sp-d16
 520              	_Z4stopv:
 521              	.LFB423:
 102:Core/Src/actuator.cpp ****     velocity_robot[0] = 0;
 522              		.loc 1 102 0
 523              		.cfi_startproc
 524              		@ args = 0, pretend = 0, frame = 0
 525              		@ frame_needed = 0, uses_anonymous_args = 0
 526 0000 08B5     		push	{r3, lr}
 527              	.LCFI13:
 528              		.cfi_def_cfa_offset 8
 529              		.cfi_offset 3, -8
 530              		.cfi_offset 14, -4
 103:Core/Src/actuator.cpp ****     velocity_robot[1] = 0;
ARM GAS  C:\Users\Aasman\AppData\Local\Temp\ccdFozvg.s 			page 13


 531              		.loc 1 103 0
 532 0002 044B     		ldr	r3, .L53
 533 0004 0022     		movs	r2, #0
 534 0006 1A60     		str	r2, [r3]	@ float
 104:Core/Src/actuator.cpp ****     velocity_robot[2] = 0;
 535              		.loc 1 104 0
 536 0008 5A60     		str	r2, [r3, #4]	@ float
 105:Core/Src/actuator.cpp ****     calculate_wheel_velocity();
 537              		.loc 1 105 0
 538 000a 9A60     		str	r2, [r3, #8]	@ float
 106:Core/Src/actuator.cpp **** }
 539              		.loc 1 106 0
 540 000c FFF7FEFF 		bl	_Z24calculate_wheel_velocityv
 541              	.LVL25:
 107:Core/Src/actuator.cpp **** 
 542              		.loc 1 107 0
 543 0010 08BD     		pop	{r3, pc}
 544              	.L54:
 545 0012 00BF     		.align	2
 546              	.L53:
 547 0014 00000000 		.word	.LANCHOR2
 548              		.cfi_endproc
 549              	.LFE423:
 551              		.section	.text._Z12set_Velocityf,"ax",%progbits
 552              		.align	1
 553              		.global	_Z12set_Velocityf
 554              		.syntax unified
 555              		.thumb
 556              		.thumb_func
 557              		.fpu fpv4-sp-d16
 559              	_Z12set_Velocityf:
 560              	.LFB424:
 110:Core/Src/actuator.cpp ****     velocity = gVelocity;
 561              		.loc 1 110 0
 562              		.cfi_startproc
 563              		@ args = 0, pretend = 0, frame = 0
 564              		@ frame_needed = 0, uses_anonymous_args = 0
 565              		@ link register save eliminated.
 566              	.LVL26:
 111:Core/Src/actuator.cpp **** }
 567              		.loc 1 111 0
 568 0000 014B     		ldr	r3, .L56
 569 0002 83ED000A 		vstr.32	s0, [r3]
 570              		.loc 1 112 0
 571 0006 7047     		bx	lr
 572              	.L57:
 573              		.align	2
 574              	.L56:
 575 0008 00000000 		.word	.LANCHOR3
 576              		.cfi_endproc
 577              	.LFE424:
 579              		.section	.text._GLOBAL__sub_I_time,"ax",%progbits
 580              		.align	1
 581              		.syntax unified
 582              		.thumb
 583              		.thumb_func
 584              		.fpu fpv4-sp-d16
ARM GAS  C:\Users\Aasman\AppData\Local\Temp\ccdFozvg.s 			page 14


 586              	_GLOBAL__sub_I_time:
 587              	.LFB426:
 588              		.loc 1 112 0
 589              		.cfi_startproc
 590              		@ args = 0, pretend = 0, frame = 0
 591              		@ frame_needed = 0, uses_anonymous_args = 0
 592 0000 08B5     		push	{r3, lr}
 593              	.LCFI14:
 594              		.cfi_def_cfa_offset 8
 595              		.cfi_offset 3, -8
 596              		.cfi_offset 14, -4
 597              		.loc 1 112 0
 598 0002 4FF6FF71 		movw	r1, #65535
 599 0006 0120     		movs	r0, #1
 600 0008 FFF7FEFF 		bl	_Z41__static_initialization_and_destruction_0ii
 601              	.LVL27:
 602 000c 08BD     		pop	{r3, pc}
 603              		.cfi_endproc
 604              	.LFE426:
 606              		.section	.init_array,"aw",%init_array
 607              		.align	2
 608 0000 00000000 		.word	_GLOBAL__sub_I_time(target1)
 609              		.global	velocity
 610              		.global	time
 611              		.section	.rodata
 612              		.align	2
 613              		.set	.LANCHOR1,. + 0
 614              	.LC0:
 615 0000 F4FD343F 		.word	1060437492
 616 0004 F4FD34BF 		.word	-1087046156
 617 0008 0000803F 		.word	1065353216
 618 000c F4FD34BF 		.word	-1087046156
 619 0010 F4FD34BF 		.word	-1087046156
 620 0014 0000803F 		.word	1065353216
 621 0018 F4FD34BF 		.word	-1087046156
 622 001c F4FD343F 		.word	1060437492
 623 0020 0000803F 		.word	1065353216
 624 0024 F4FD343F 		.word	1060437492
 625 0028 F4FD343F 		.word	1060437492
 626 002c 0000803F 		.word	1065353216
 627              		.section	.bss._ZL14velocity_robot,"aw",%nobits
 628              		.align	2
 629              		.set	.LANCHOR2,. + 0
 632              	_ZL14velocity_robot:
 633 0000 00000000 		.space	12
 633      00000000 
 633      00000000 
 634              		.section	.bss.time,"aw",%nobits
 635              		.align	2
 636              		.set	.LANCHOR0,. + 0
 639              	time:
 640 0000 00000000 		.space	4
 641              		.section	.data.velocity,"aw",%progbits
 642              		.align	2
 643              		.set	.LANCHOR3,. + 0
 646              	velocity:
 647 0000 00002042 		.word	1109393408
ARM GAS  C:\Users\Aasman\AppData\Local\Temp\ccdFozvg.s 			page 15


 648              		.text
 649              	.Letext0:
 650              		.file 2 "c:\\program files (x86)\\gnu tools arm embedded\\7 2017-q4-major\\arm-none-eabi\\include\
 651              		.file 3 "c:\\program files (x86)\\gnu tools arm embedded\\7 2017-q4-major\\arm-none-eabi\\include\
 652              		.file 4 "Drivers/CMSIS/Include/core_cm4.h"
 653              		.file 5 "Drivers/CMSIS/Device/ST/STM32F4xx/Include/system_stm32f4xx.h"
 654              		.file 6 "Drivers/CMSIS/Device/ST/STM32F4xx/Include/stm32f407xx.h"
 655              		.file 7 "Drivers/CMSIS/Device/ST/STM32F4xx/Include/stm32f4xx.h"
 656              		.file 8 "Drivers/STM32F4xx_HAL_Driver/Inc/stm32f4xx_hal_def.h"
 657              		.file 9 "Drivers/STM32F4xx_HAL_Driver/Inc/stm32f4xx_hal_dma.h"
 658              		.file 10 "Drivers/STM32F4xx_HAL_Driver/Inc/stm32f4xx_hal_tim.h"
 659              		.file 11 "Drivers/STM32F4xx_HAL_Driver/Inc/stm32f4xx_hal_uart.h"
 660              		.file 12 "Drivers/STM32F4xx_HAL_Driver/Inc/stm32f4xx_hal.h"
 661              		.file 13 "c:\\program files (x86)\\gnu tools arm embedded\\7 2017-q4-major\\arm-none-eabi\\include
 662              		.file 14 "c:\\program files (x86)\\gnu tools arm embedded\\7 2017-q4-major\\arm-none-eabi\\include
 663              		.file 15 "c:\\program files (x86)\\gnu tools arm embedded\\7 2017-q4-major\\lib\\gcc\\arm-none-eab
 664              		.file 16 "c:\\program files (x86)\\gnu tools arm embedded\\7 2017-q4-major\\arm-none-eabi\\include
 665              		.file 17 "Core/Inc/tim.h"
 666              		.file 18 "Core/Inc/usart.h"
 667              		.file 19 "Core/Inc/pid.h"
 668              		.file 20 "Core/Inc/joystick.h"
 669              		.file 21 "c:\\program files (x86)\\gnu tools arm embedded\\7 2017-q4-major\\arm-none-eabi\\include
 670              		.file 22 "c:\\program files (x86)\\gnu tools arm embedded\\7 2017-q4-major\\arm-none-eabi\\include
 671              		.file 23 "c:\\program files (x86)\\gnu tools arm embedded\\7 2017-q4-major\\arm-none-eabi\\include
 672              		.file 24 "c:\\program files (x86)\\gnu tools arm embedded\\7 2017-q4-major\\arm-none-eabi\\include
 673              		.file 25 "c:\\program files (x86)\\gnu tools arm embedded\\7 2017-q4-major\\arm-none-eabi\\include
 674              		.file 26 "c:\\program files (x86)\\gnu tools arm embedded\\7 2017-q4-major\\arm-none-eabi\\include
 675              		.file 27 "Core/Inc/motor.h"
 676              		.file 28 "Core/Inc/encoder.h"
 677              		.file 29 "<built-in>"
ARM GAS  C:\Users\Aasman\AppData\Local\Temp\ccdFozvg.s 			page 16


DEFINED SYMBOLS
                            *ABS*:00000000 actuator.cpp
C:\Users\Aasman\AppData\Local\Temp\ccdFozvg.s:18     .text._Z41__static_initialization_and_destruction_0ii:00000000 $t
C:\Users\Aasman\AppData\Local\Temp\ccdFozvg.s:24     .text._Z41__static_initialization_and_destruction_0ii:00000000 _Z41__static_initialization_and_destruction_0ii
C:\Users\Aasman\AppData\Local\Temp\ccdFozvg.s:62     .text._Z41__static_initialization_and_destruction_0ii:0000001c $d
C:\Users\Aasman\AppData\Local\Temp\ccdFozvg.s:67     .text._Z4playv:00000000 $t
C:\Users\Aasman\AppData\Local\Temp\ccdFozvg.s:74     .text._Z4playv:00000000 _Z4playv
C:\Users\Aasman\AppData\Local\Temp\ccdFozvg.s:110    .text._Z4playv:00000020 $d
C:\Users\Aasman\AppData\Local\Temp\ccdFozvg.s:115    .text._Z24calculate_wheel_velocityv:00000000 $t
C:\Users\Aasman\AppData\Local\Temp\ccdFozvg.s:122    .text._Z24calculate_wheel_velocityv:00000000 _Z24calculate_wheel_velocityv
C:\Users\Aasman\AppData\Local\Temp\ccdFozvg.s:254    .text._Z24calculate_wheel_velocityv:000000ac $d
C:\Users\Aasman\AppData\Local\Temp\ccdFozvg.s:261    .text._Z7forwardv:00000000 $t
C:\Users\Aasman\AppData\Local\Temp\ccdFozvg.s:268    .text._Z7forwardv:00000000 _Z7forwardv
C:\Users\Aasman\AppData\Local\Temp\ccdFozvg.s:298    .text._Z7forwardv:00000020 $d
C:\Users\Aasman\AppData\Local\Temp\ccdFozvg.s:304    .text._Z4backv:00000000 $t
C:\Users\Aasman\AppData\Local\Temp\ccdFozvg.s:311    .text._Z4backv:00000000 _Z4backv
C:\Users\Aasman\AppData\Local\Temp\ccdFozvg.s:340    .text._Z4backv:00000018 $d
C:\Users\Aasman\AppData\Local\Temp\ccdFozvg.s:346    .text._Z4leftv:00000000 $t
C:\Users\Aasman\AppData\Local\Temp\ccdFozvg.s:353    .text._Z4leftv:00000000 _Z4leftv
C:\Users\Aasman\AppData\Local\Temp\ccdFozvg.s:383    .text._Z4leftv:00000020 $d
C:\Users\Aasman\AppData\Local\Temp\ccdFozvg.s:389    .text._Z5rightv:00000000 $t
C:\Users\Aasman\AppData\Local\Temp\ccdFozvg.s:396    .text._Z5rightv:00000000 _Z5rightv
C:\Users\Aasman\AppData\Local\Temp\ccdFozvg.s:425    .text._Z5rightv:00000018 $d
C:\Users\Aasman\AppData\Local\Temp\ccdFozvg.s:431    .text._Z9clockwisev:00000000 $t
C:\Users\Aasman\AppData\Local\Temp\ccdFozvg.s:438    .text._Z9clockwisev:00000000 _Z9clockwisev
C:\Users\Aasman\AppData\Local\Temp\ccdFozvg.s:466    .text._Z9clockwisev:00000014 $d
C:\Users\Aasman\AppData\Local\Temp\ccdFozvg.s:472    .text._Z13anticlockwisev:00000000 $t
C:\Users\Aasman\AppData\Local\Temp\ccdFozvg.s:479    .text._Z13anticlockwisev:00000000 _Z13anticlockwisev
C:\Users\Aasman\AppData\Local\Temp\ccdFozvg.s:507    .text._Z13anticlockwisev:00000014 $d
C:\Users\Aasman\AppData\Local\Temp\ccdFozvg.s:513    .text._Z4stopv:00000000 $t
C:\Users\Aasman\AppData\Local\Temp\ccdFozvg.s:520    .text._Z4stopv:00000000 _Z4stopv
C:\Users\Aasman\AppData\Local\Temp\ccdFozvg.s:547    .text._Z4stopv:00000014 $d
C:\Users\Aasman\AppData\Local\Temp\ccdFozvg.s:552    .text._Z12set_Velocityf:00000000 $t
C:\Users\Aasman\AppData\Local\Temp\ccdFozvg.s:559    .text._Z12set_Velocityf:00000000 _Z12set_Velocityf
C:\Users\Aasman\AppData\Local\Temp\ccdFozvg.s:575    .text._Z12set_Velocityf:00000008 $d
C:\Users\Aasman\AppData\Local\Temp\ccdFozvg.s:580    .text._GLOBAL__sub_I_time:00000000 $t
C:\Users\Aasman\AppData\Local\Temp\ccdFozvg.s:586    .text._GLOBAL__sub_I_time:00000000 _GLOBAL__sub_I_time
C:\Users\Aasman\AppData\Local\Temp\ccdFozvg.s:607    .init_array:00000000 $d
C:\Users\Aasman\AppData\Local\Temp\ccdFozvg.s:646    .data.velocity:00000000 velocity
C:\Users\Aasman\AppData\Local\Temp\ccdFozvg.s:639    .bss.time:00000000 time
C:\Users\Aasman\AppData\Local\Temp\ccdFozvg.s:612    .rodata:00000000 $d
C:\Users\Aasman\AppData\Local\Temp\ccdFozvg.s:628    .bss._ZL14velocity_robot:00000000 $d
C:\Users\Aasman\AppData\Local\Temp\ccdFozvg.s:632    .bss._ZL14velocity_robot:00000000 _ZL14velocity_robot
C:\Users\Aasman\AppData\Local\Temp\ccdFozvg.s:635    .bss.time:00000000 $d
C:\Users\Aasman\AppData\Local\Temp\ccdFozvg.s:642    .data.velocity:00000000 $d

UNDEFINED SYMBOLS
HAL_GetTick
_Z5task_v
_Z8get_datai
_ZN5motor11motor_inputEff
gmotor
