ARM GAS  C:\Users\one\AppData\Local\Temp\ccK6ff3Z.s 			page 1


   1              		.cpu cortex-m4
   2              		.eabi_attribute 27, 1
   3              		.eabi_attribute 28, 1
   4              		.eabi_attribute 20, 1
   5              		.eabi_attribute 21, 1
   6              		.eabi_attribute 23, 3
   7              		.eabi_attribute 24, 1
   8              		.eabi_attribute 25, 1
   9              		.eabi_attribute 26, 1
  10              		.eabi_attribute 30, 1
  11              		.eabi_attribute 34, 1
  12              		.eabi_attribute 18, 4
  13              		.file	"tim.c"
  14              		.text
  15              	.Ltext0:
  16              		.cfi_sections	.debug_frame
  17              		.section	.text.MX_TIM1_Init,"ax",%progbits
  18              		.align	1
  19              		.global	MX_TIM1_Init
  20              		.arch armv7e-m
  21              		.syntax unified
  22              		.thumb
  23              		.thumb_func
  24              		.fpu fpv4-sp-d16
  26              	MX_TIM1_Init:
  27              	.LFB133:
  28              		.file 1 "Core/Src/tim.c"
   1:Core/Src/tim.c **** /**
   2:Core/Src/tim.c ****   ******************************************************************************
   3:Core/Src/tim.c ****   * File Name          : TIM.c
   4:Core/Src/tim.c ****   * Description        : This file provides code for the configuration
   5:Core/Src/tim.c ****   *                      of the TIM instances.
   6:Core/Src/tim.c ****   ******************************************************************************
   7:Core/Src/tim.c ****   * @attention
   8:Core/Src/tim.c ****   *
   9:Core/Src/tim.c ****   * <h2><center>&copy; Copyright (c) 2019 STMicroelectronics.
  10:Core/Src/tim.c ****   * All rights reserved.</center></h2>
  11:Core/Src/tim.c ****   *
  12:Core/Src/tim.c ****   * This software component is licensed by ST under BSD 3-Clause license,
  13:Core/Src/tim.c ****   * the "License"; You may not use this file except in compliance with the
  14:Core/Src/tim.c ****   * License. You may obtain a copy of the License at:
  15:Core/Src/tim.c ****   *                        opensource.org/licenses/BSD-3-Clause
  16:Core/Src/tim.c ****   *
  17:Core/Src/tim.c ****   ******************************************************************************
  18:Core/Src/tim.c ****   */
  19:Core/Src/tim.c **** 
  20:Core/Src/tim.c **** /* Includes ------------------------------------------------------------------*/
  21:Core/Src/tim.c **** #include "tim.h"
  22:Core/Src/tim.c **** 
  23:Core/Src/tim.c **** /* USER CODE BEGIN 0 */
  24:Core/Src/tim.c **** 
  25:Core/Src/tim.c **** /* USER CODE END 0 */
  26:Core/Src/tim.c **** 
  27:Core/Src/tim.c **** TIM_HandleTypeDef htim1;
  28:Core/Src/tim.c **** TIM_HandleTypeDef htim2;
  29:Core/Src/tim.c **** TIM_HandleTypeDef htim3;
  30:Core/Src/tim.c **** TIM_HandleTypeDef htim4;
ARM GAS  C:\Users\one\AppData\Local\Temp\ccK6ff3Z.s 			page 2


  31:Core/Src/tim.c **** TIM_HandleTypeDef htim8;
  32:Core/Src/tim.c **** 
  33:Core/Src/tim.c **** /* TIM1 init function */
  34:Core/Src/tim.c **** void MX_TIM1_Init(void)
  35:Core/Src/tim.c **** {
  29              		.loc 1 35 1 view -0
  30              		.cfi_startproc
  31              		@ args = 0, pretend = 0, frame = 48
  32              		@ frame_needed = 0, uses_anonymous_args = 0
  33 0000 00B5     		push	{lr}
  34              	.LCFI0:
  35              		.cfi_def_cfa_offset 4
  36              		.cfi_offset 14, -4
  37 0002 8DB0     		sub	sp, sp, #52
  38              	.LCFI1:
  39              		.cfi_def_cfa_offset 56
  36:Core/Src/tim.c ****   TIM_Encoder_InitTypeDef sConfig = {0};
  40              		.loc 1 36 3 view .LVU1
  37:Core/Src/tim.c ****   TIM_MasterConfigTypeDef sMasterConfig = {0};
  41              		.loc 1 37 3 view .LVU2
  42              		.loc 1 37 27 is_stmt 0 view .LVU3
  43 0004 0023     		movs	r3, #0
  44 0006 0193     		str	r3, [sp, #4]
  45 0008 0293     		str	r3, [sp, #8]
  38:Core/Src/tim.c **** 
  39:Core/Src/tim.c ****   htim1.Instance = TIM1;
  46              		.loc 1 39 3 is_stmt 1 view .LVU4
  47              		.loc 1 39 18 is_stmt 0 view .LVU5
  48 000a 1548     		ldr	r0, .L7
  49 000c 154A     		ldr	r2, .L7+4
  50 000e 0260     		str	r2, [r0]
  40:Core/Src/tim.c ****   htim1.Init.Prescaler = 0;
  51              		.loc 1 40 3 is_stmt 1 view .LVU6
  52              		.loc 1 40 24 is_stmt 0 view .LVU7
  53 0010 4360     		str	r3, [r0, #4]
  41:Core/Src/tim.c ****   htim1.Init.CounterMode = TIM_COUNTERMODE_UP;
  54              		.loc 1 41 3 is_stmt 1 view .LVU8
  55              		.loc 1 41 26 is_stmt 0 view .LVU9
  56 0012 8360     		str	r3, [r0, #8]
  42:Core/Src/tim.c ****   htim1.Init.Period = 65535;
  57              		.loc 1 42 3 is_stmt 1 view .LVU10
  58              		.loc 1 42 21 is_stmt 0 view .LVU11
  59 0014 4FF6FF72 		movw	r2, #65535
  60 0018 C260     		str	r2, [r0, #12]
  43:Core/Src/tim.c ****   htim1.Init.ClockDivision = TIM_CLOCKDIVISION_DIV1;
  61              		.loc 1 43 3 is_stmt 1 view .LVU12
  62              		.loc 1 43 28 is_stmt 0 view .LVU13
  63 001a 0361     		str	r3, [r0, #16]
  44:Core/Src/tim.c ****   htim1.Init.RepetitionCounter = 0;
  64              		.loc 1 44 3 is_stmt 1 view .LVU14
  65              		.loc 1 44 32 is_stmt 0 view .LVU15
  66 001c 4361     		str	r3, [r0, #20]
  45:Core/Src/tim.c ****   htim1.Init.AutoReloadPreload = TIM_AUTORELOAD_PRELOAD_DISABLE;
  67              		.loc 1 45 3 is_stmt 1 view .LVU16
  68              		.loc 1 45 32 is_stmt 0 view .LVU17
  69 001e 8361     		str	r3, [r0, #24]
  46:Core/Src/tim.c ****   sConfig.EncoderMode = TIM_ENCODERMODE_TI12;
ARM GAS  C:\Users\one\AppData\Local\Temp\ccK6ff3Z.s 			page 3


  70              		.loc 1 46 3 is_stmt 1 view .LVU18
  71              		.loc 1 46 23 is_stmt 0 view .LVU19
  72 0020 0322     		movs	r2, #3
  73 0022 0392     		str	r2, [sp, #12]
  47:Core/Src/tim.c ****   sConfig.IC1Polarity = TIM_ICPOLARITY_RISING;
  74              		.loc 1 47 3 is_stmt 1 view .LVU20
  75              		.loc 1 47 23 is_stmt 0 view .LVU21
  76 0024 0493     		str	r3, [sp, #16]
  48:Core/Src/tim.c ****   sConfig.IC1Selection = TIM_ICSELECTION_DIRECTTI;
  77              		.loc 1 48 3 is_stmt 1 view .LVU22
  78              		.loc 1 48 24 is_stmt 0 view .LVU23
  79 0026 0122     		movs	r2, #1
  80 0028 0592     		str	r2, [sp, #20]
  49:Core/Src/tim.c ****   sConfig.IC1Prescaler = TIM_ICPSC_DIV1;
  81              		.loc 1 49 3 is_stmt 1 view .LVU24
  82              		.loc 1 49 24 is_stmt 0 view .LVU25
  83 002a 0693     		str	r3, [sp, #24]
  50:Core/Src/tim.c ****   sConfig.IC1Filter = 0;
  84              		.loc 1 50 3 is_stmt 1 view .LVU26
  85              		.loc 1 50 21 is_stmt 0 view .LVU27
  86 002c 0793     		str	r3, [sp, #28]
  51:Core/Src/tim.c ****   sConfig.IC2Polarity = TIM_ICPOLARITY_RISING;
  87              		.loc 1 51 3 is_stmt 1 view .LVU28
  88              		.loc 1 51 23 is_stmt 0 view .LVU29
  89 002e 0893     		str	r3, [sp, #32]
  52:Core/Src/tim.c ****   sConfig.IC2Selection = TIM_ICSELECTION_DIRECTTI;
  90              		.loc 1 52 3 is_stmt 1 view .LVU30
  91              		.loc 1 52 24 is_stmt 0 view .LVU31
  92 0030 0992     		str	r2, [sp, #36]
  53:Core/Src/tim.c ****   sConfig.IC2Prescaler = TIM_ICPSC_DIV1;
  93              		.loc 1 53 3 is_stmt 1 view .LVU32
  94              		.loc 1 53 24 is_stmt 0 view .LVU33
  95 0032 0A93     		str	r3, [sp, #40]
  54:Core/Src/tim.c ****   sConfig.IC2Filter = 0;
  96              		.loc 1 54 3 is_stmt 1 view .LVU34
  97              		.loc 1 54 21 is_stmt 0 view .LVU35
  98 0034 0B93     		str	r3, [sp, #44]
  55:Core/Src/tim.c ****   if (HAL_TIM_Encoder_Init(&htim1, &sConfig) != HAL_OK)
  99              		.loc 1 55 3 is_stmt 1 view .LVU36
 100              		.loc 1 55 7 is_stmt 0 view .LVU37
 101 0036 03A9     		add	r1, sp, #12
 102 0038 FFF7FEFF 		bl	HAL_TIM_Encoder_Init
 103              	.LVL0:
 104              		.loc 1 55 6 view .LVU38
 105 003c 50B9     		cbnz	r0, .L5
 106              	.L2:
  56:Core/Src/tim.c ****   {
  57:Core/Src/tim.c ****     Error_Handler();
  58:Core/Src/tim.c ****   }
  59:Core/Src/tim.c ****   sMasterConfig.MasterOutputTrigger = TIM_TRGO_RESET;
 107              		.loc 1 59 3 is_stmt 1 view .LVU39
 108              		.loc 1 59 37 is_stmt 0 view .LVU40
 109 003e 0023     		movs	r3, #0
 110 0040 0193     		str	r3, [sp, #4]
  60:Core/Src/tim.c ****   sMasterConfig.MasterSlaveMode = TIM_MASTERSLAVEMODE_DISABLE;
 111              		.loc 1 60 3 is_stmt 1 view .LVU41
 112              		.loc 1 60 33 is_stmt 0 view .LVU42
ARM GAS  C:\Users\one\AppData\Local\Temp\ccK6ff3Z.s 			page 4


 113 0042 0293     		str	r3, [sp, #8]
  61:Core/Src/tim.c ****   if (HAL_TIMEx_MasterConfigSynchronization(&htim1, &sMasterConfig) != HAL_OK)
 114              		.loc 1 61 3 is_stmt 1 view .LVU43
 115              		.loc 1 61 7 is_stmt 0 view .LVU44
 116 0044 01A9     		add	r1, sp, #4
 117 0046 0648     		ldr	r0, .L7
 118 0048 FFF7FEFF 		bl	HAL_TIMEx_MasterConfigSynchronization
 119              	.LVL1:
 120              		.loc 1 61 6 view .LVU45
 121 004c 28B9     		cbnz	r0, .L6
 122              	.L1:
  62:Core/Src/tim.c ****   {
  63:Core/Src/tim.c ****     Error_Handler();
  64:Core/Src/tim.c ****   }
  65:Core/Src/tim.c **** 
  66:Core/Src/tim.c **** }
 123              		.loc 1 66 1 view .LVU46
 124 004e 0DB0     		add	sp, sp, #52
 125              	.LCFI2:
 126              		.cfi_remember_state
 127              		.cfi_def_cfa_offset 4
 128              		@ sp needed
 129 0050 5DF804FB 		ldr	pc, [sp], #4
 130              	.L5:
 131              	.LCFI3:
 132              		.cfi_restore_state
  57:Core/Src/tim.c ****   }
 133              		.loc 1 57 5 is_stmt 1 view .LVU47
 134 0054 FFF7FEFF 		bl	Error_Handler
 135              	.LVL2:
 136 0058 F1E7     		b	.L2
 137              	.L6:
  63:Core/Src/tim.c ****   }
 138              		.loc 1 63 5 view .LVU48
 139 005a FFF7FEFF 		bl	Error_Handler
 140              	.LVL3:
 141              		.loc 1 66 1 is_stmt 0 view .LVU49
 142 005e F6E7     		b	.L1
 143              	.L8:
 144              		.align	2
 145              	.L7:
 146 0060 00000000 		.word	htim1
 147 0064 00000140 		.word	1073807360
 148              		.cfi_endproc
 149              	.LFE133:
 151              		.section	.text.MX_TIM2_Init,"ax",%progbits
 152              		.align	1
 153              		.global	MX_TIM2_Init
 154              		.syntax unified
 155              		.thumb
 156              		.thumb_func
 157              		.fpu fpv4-sp-d16
 159              	MX_TIM2_Init:
 160              	.LFB134:
  67:Core/Src/tim.c **** /* TIM2 init function */
  68:Core/Src/tim.c **** void MX_TIM2_Init(void)
  69:Core/Src/tim.c **** {
ARM GAS  C:\Users\one\AppData\Local\Temp\ccK6ff3Z.s 			page 5


 161              		.loc 1 69 1 is_stmt 1 view -0
 162              		.cfi_startproc
 163              		@ args = 0, pretend = 0, frame = 48
 164              		@ frame_needed = 0, uses_anonymous_args = 0
 165 0000 00B5     		push	{lr}
 166              	.LCFI4:
 167              		.cfi_def_cfa_offset 4
 168              		.cfi_offset 14, -4
 169 0002 8DB0     		sub	sp, sp, #52
 170              	.LCFI5:
 171              		.cfi_def_cfa_offset 56
  70:Core/Src/tim.c ****   TIM_Encoder_InitTypeDef sConfig = {0};
 172              		.loc 1 70 3 view .LVU51
  71:Core/Src/tim.c ****   TIM_MasterConfigTypeDef sMasterConfig = {0};
 173              		.loc 1 71 3 view .LVU52
 174              		.loc 1 71 27 is_stmt 0 view .LVU53
 175 0004 0023     		movs	r3, #0
 176 0006 0193     		str	r3, [sp, #4]
 177 0008 0293     		str	r3, [sp, #8]
  72:Core/Src/tim.c **** 
  73:Core/Src/tim.c ****   htim2.Instance = TIM2;
 178              		.loc 1 73 3 is_stmt 1 view .LVU54
 179              		.loc 1 73 18 is_stmt 0 view .LVU55
 180 000a 1548     		ldr	r0, .L15
 181 000c 4FF08042 		mov	r2, #1073741824
 182 0010 0260     		str	r2, [r0]
  74:Core/Src/tim.c ****   htim2.Init.Prescaler = 0;
 183              		.loc 1 74 3 is_stmt 1 view .LVU56
 184              		.loc 1 74 24 is_stmt 0 view .LVU57
 185 0012 4360     		str	r3, [r0, #4]
  75:Core/Src/tim.c ****   htim2.Init.CounterMode = TIM_COUNTERMODE_UP;
 186              		.loc 1 75 3 is_stmt 1 view .LVU58
 187              		.loc 1 75 26 is_stmt 0 view .LVU59
 188 0014 8360     		str	r3, [r0, #8]
  76:Core/Src/tim.c ****   htim2.Init.Period = 65535;
 189              		.loc 1 76 3 is_stmt 1 view .LVU60
 190              		.loc 1 76 21 is_stmt 0 view .LVU61
 191 0016 4FF6FF72 		movw	r2, #65535
 192 001a C260     		str	r2, [r0, #12]
  77:Core/Src/tim.c ****   htim2.Init.ClockDivision = TIM_CLOCKDIVISION_DIV1;
 193              		.loc 1 77 3 is_stmt 1 view .LVU62
 194              		.loc 1 77 28 is_stmt 0 view .LVU63
 195 001c 0361     		str	r3, [r0, #16]
  78:Core/Src/tim.c ****   htim2.Init.AutoReloadPreload = TIM_AUTORELOAD_PRELOAD_DISABLE;
 196              		.loc 1 78 3 is_stmt 1 view .LVU64
 197              		.loc 1 78 32 is_stmt 0 view .LVU65
 198 001e 8361     		str	r3, [r0, #24]
  79:Core/Src/tim.c ****   sConfig.EncoderMode = TIM_ENCODERMODE_TI12;
 199              		.loc 1 79 3 is_stmt 1 view .LVU66
 200              		.loc 1 79 23 is_stmt 0 view .LVU67
 201 0020 0322     		movs	r2, #3
 202 0022 0392     		str	r2, [sp, #12]
  80:Core/Src/tim.c ****   sConfig.IC1Polarity = TIM_ICPOLARITY_RISING;
 203              		.loc 1 80 3 is_stmt 1 view .LVU68
 204              		.loc 1 80 23 is_stmt 0 view .LVU69
 205 0024 0493     		str	r3, [sp, #16]
  81:Core/Src/tim.c ****   sConfig.IC1Selection = TIM_ICSELECTION_DIRECTTI;
ARM GAS  C:\Users\one\AppData\Local\Temp\ccK6ff3Z.s 			page 6


 206              		.loc 1 81 3 is_stmt 1 view .LVU70
 207              		.loc 1 81 24 is_stmt 0 view .LVU71
 208 0026 0122     		movs	r2, #1
 209 0028 0592     		str	r2, [sp, #20]
  82:Core/Src/tim.c ****   sConfig.IC1Prescaler = TIM_ICPSC_DIV1;
 210              		.loc 1 82 3 is_stmt 1 view .LVU72
 211              		.loc 1 82 24 is_stmt 0 view .LVU73
 212 002a 0693     		str	r3, [sp, #24]
  83:Core/Src/tim.c ****   sConfig.IC1Filter = 0;
 213              		.loc 1 83 3 is_stmt 1 view .LVU74
 214              		.loc 1 83 21 is_stmt 0 view .LVU75
 215 002c 0793     		str	r3, [sp, #28]
  84:Core/Src/tim.c ****   sConfig.IC2Polarity = TIM_ICPOLARITY_RISING;
 216              		.loc 1 84 3 is_stmt 1 view .LVU76
 217              		.loc 1 84 23 is_stmt 0 view .LVU77
 218 002e 0893     		str	r3, [sp, #32]
  85:Core/Src/tim.c ****   sConfig.IC2Selection = TIM_ICSELECTION_DIRECTTI;
 219              		.loc 1 85 3 is_stmt 1 view .LVU78
 220              		.loc 1 85 24 is_stmt 0 view .LVU79
 221 0030 0992     		str	r2, [sp, #36]
  86:Core/Src/tim.c ****   sConfig.IC2Prescaler = TIM_ICPSC_DIV1;
 222              		.loc 1 86 3 is_stmt 1 view .LVU80
 223              		.loc 1 86 24 is_stmt 0 view .LVU81
 224 0032 0A93     		str	r3, [sp, #40]
  87:Core/Src/tim.c ****   sConfig.IC2Filter = 0;
 225              		.loc 1 87 3 is_stmt 1 view .LVU82
 226              		.loc 1 87 21 is_stmt 0 view .LVU83
 227 0034 0B93     		str	r3, [sp, #44]
  88:Core/Src/tim.c ****   if (HAL_TIM_Encoder_Init(&htim2, &sConfig) != HAL_OK)
 228              		.loc 1 88 3 is_stmt 1 view .LVU84
 229              		.loc 1 88 7 is_stmt 0 view .LVU85
 230 0036 03A9     		add	r1, sp, #12
 231 0038 FFF7FEFF 		bl	HAL_TIM_Encoder_Init
 232              	.LVL4:
 233              		.loc 1 88 6 view .LVU86
 234 003c 50B9     		cbnz	r0, .L13
 235              	.L10:
  89:Core/Src/tim.c ****   {
  90:Core/Src/tim.c ****     Error_Handler();
  91:Core/Src/tim.c ****   }
  92:Core/Src/tim.c ****   sMasterConfig.MasterOutputTrigger = TIM_TRGO_RESET;
 236              		.loc 1 92 3 is_stmt 1 view .LVU87
 237              		.loc 1 92 37 is_stmt 0 view .LVU88
 238 003e 0023     		movs	r3, #0
 239 0040 0193     		str	r3, [sp, #4]
  93:Core/Src/tim.c ****   sMasterConfig.MasterSlaveMode = TIM_MASTERSLAVEMODE_DISABLE;
 240              		.loc 1 93 3 is_stmt 1 view .LVU89
 241              		.loc 1 93 33 is_stmt 0 view .LVU90
 242 0042 0293     		str	r3, [sp, #8]
  94:Core/Src/tim.c ****   if (HAL_TIMEx_MasterConfigSynchronization(&htim2, &sMasterConfig) != HAL_OK)
 243              		.loc 1 94 3 is_stmt 1 view .LVU91
 244              		.loc 1 94 7 is_stmt 0 view .LVU92
 245 0044 01A9     		add	r1, sp, #4
 246 0046 0648     		ldr	r0, .L15
 247 0048 FFF7FEFF 		bl	HAL_TIMEx_MasterConfigSynchronization
 248              	.LVL5:
 249              		.loc 1 94 6 view .LVU93
ARM GAS  C:\Users\one\AppData\Local\Temp\ccK6ff3Z.s 			page 7


 250 004c 28B9     		cbnz	r0, .L14
 251              	.L9:
  95:Core/Src/tim.c ****   {
  96:Core/Src/tim.c ****     Error_Handler();
  97:Core/Src/tim.c ****   }
  98:Core/Src/tim.c **** 
  99:Core/Src/tim.c **** }
 252              		.loc 1 99 1 view .LVU94
 253 004e 0DB0     		add	sp, sp, #52
 254              	.LCFI6:
 255              		.cfi_remember_state
 256              		.cfi_def_cfa_offset 4
 257              		@ sp needed
 258 0050 5DF804FB 		ldr	pc, [sp], #4
 259              	.L13:
 260              	.LCFI7:
 261              		.cfi_restore_state
  90:Core/Src/tim.c ****   }
 262              		.loc 1 90 5 is_stmt 1 view .LVU95
 263 0054 FFF7FEFF 		bl	Error_Handler
 264              	.LVL6:
 265 0058 F1E7     		b	.L10
 266              	.L14:
  96:Core/Src/tim.c ****   }
 267              		.loc 1 96 5 view .LVU96
 268 005a FFF7FEFF 		bl	Error_Handler
 269              	.LVL7:
 270              		.loc 1 99 1 is_stmt 0 view .LVU97
 271 005e F6E7     		b	.L9
 272              	.L16:
 273              		.align	2
 274              	.L15:
 275 0060 00000000 		.word	htim2
 276              		.cfi_endproc
 277              	.LFE134:
 279              		.section	.text.MX_TIM3_Init,"ax",%progbits
 280              		.align	1
 281              		.global	MX_TIM3_Init
 282              		.syntax unified
 283              		.thumb
 284              		.thumb_func
 285              		.fpu fpv4-sp-d16
 287              	MX_TIM3_Init:
 288              	.LFB135:
 100:Core/Src/tim.c **** /* TIM3 init function */
 101:Core/Src/tim.c **** void MX_TIM3_Init(void)
 102:Core/Src/tim.c **** {
 289              		.loc 1 102 1 is_stmt 1 view -0
 290              		.cfi_startproc
 291              		@ args = 0, pretend = 0, frame = 48
 292              		@ frame_needed = 0, uses_anonymous_args = 0
 293 0000 00B5     		push	{lr}
 294              	.LCFI8:
 295              		.cfi_def_cfa_offset 4
 296              		.cfi_offset 14, -4
 297 0002 8DB0     		sub	sp, sp, #52
 298              	.LCFI9:
ARM GAS  C:\Users\one\AppData\Local\Temp\ccK6ff3Z.s 			page 8


 299              		.cfi_def_cfa_offset 56
 103:Core/Src/tim.c ****   TIM_Encoder_InitTypeDef sConfig = {0};
 300              		.loc 1 103 3 view .LVU99
 104:Core/Src/tim.c ****   TIM_MasterConfigTypeDef sMasterConfig = {0};
 301              		.loc 1 104 3 view .LVU100
 302              		.loc 1 104 27 is_stmt 0 view .LVU101
 303 0004 0023     		movs	r3, #0
 304 0006 0193     		str	r3, [sp, #4]
 305 0008 0293     		str	r3, [sp, #8]
 105:Core/Src/tim.c **** 
 106:Core/Src/tim.c ****   htim3.Instance = TIM3;
 306              		.loc 1 106 3 is_stmt 1 view .LVU102
 307              		.loc 1 106 18 is_stmt 0 view .LVU103
 308 000a 1548     		ldr	r0, .L23
 309 000c 154A     		ldr	r2, .L23+4
 310 000e 0260     		str	r2, [r0]
 107:Core/Src/tim.c ****   htim3.Init.Prescaler = 0;
 311              		.loc 1 107 3 is_stmt 1 view .LVU104
 312              		.loc 1 107 24 is_stmt 0 view .LVU105
 313 0010 4360     		str	r3, [r0, #4]
 108:Core/Src/tim.c ****   htim3.Init.CounterMode = TIM_COUNTERMODE_UP;
 314              		.loc 1 108 3 is_stmt 1 view .LVU106
 315              		.loc 1 108 26 is_stmt 0 view .LVU107
 316 0012 8360     		str	r3, [r0, #8]
 109:Core/Src/tim.c ****   htim3.Init.Period = 65535;
 317              		.loc 1 109 3 is_stmt 1 view .LVU108
 318              		.loc 1 109 21 is_stmt 0 view .LVU109
 319 0014 4FF6FF72 		movw	r2, #65535
 320 0018 C260     		str	r2, [r0, #12]
 110:Core/Src/tim.c ****   htim3.Init.ClockDivision = TIM_CLOCKDIVISION_DIV1;
 321              		.loc 1 110 3 is_stmt 1 view .LVU110
 322              		.loc 1 110 28 is_stmt 0 view .LVU111
 323 001a 0361     		str	r3, [r0, #16]
 111:Core/Src/tim.c ****   htim3.Init.AutoReloadPreload = TIM_AUTORELOAD_PRELOAD_DISABLE;
 324              		.loc 1 111 3 is_stmt 1 view .LVU112
 325              		.loc 1 111 32 is_stmt 0 view .LVU113
 326 001c 8361     		str	r3, [r0, #24]
 112:Core/Src/tim.c ****   sConfig.EncoderMode = TIM_ENCODERMODE_TI12;
 327              		.loc 1 112 3 is_stmt 1 view .LVU114
 328              		.loc 1 112 23 is_stmt 0 view .LVU115
 329 001e 0322     		movs	r2, #3
 330 0020 0392     		str	r2, [sp, #12]
 113:Core/Src/tim.c ****   sConfig.IC1Polarity = TIM_ICPOLARITY_RISING;
 331              		.loc 1 113 3 is_stmt 1 view .LVU116
 332              		.loc 1 113 23 is_stmt 0 view .LVU117
 333 0022 0493     		str	r3, [sp, #16]
 114:Core/Src/tim.c ****   sConfig.IC1Selection = TIM_ICSELECTION_DIRECTTI;
 334              		.loc 1 114 3 is_stmt 1 view .LVU118
 335              		.loc 1 114 24 is_stmt 0 view .LVU119
 336 0024 0122     		movs	r2, #1
 337 0026 0592     		str	r2, [sp, #20]
 115:Core/Src/tim.c ****   sConfig.IC1Prescaler = TIM_ICPSC_DIV1;
 338              		.loc 1 115 3 is_stmt 1 view .LVU120
 339              		.loc 1 115 24 is_stmt 0 view .LVU121
 340 0028 0693     		str	r3, [sp, #24]
 116:Core/Src/tim.c ****   sConfig.IC1Filter = 0;
 341              		.loc 1 116 3 is_stmt 1 view .LVU122
ARM GAS  C:\Users\one\AppData\Local\Temp\ccK6ff3Z.s 			page 9


 342              		.loc 1 116 21 is_stmt 0 view .LVU123
 343 002a 0793     		str	r3, [sp, #28]
 117:Core/Src/tim.c ****   sConfig.IC2Polarity = TIM_ICPOLARITY_RISING;
 344              		.loc 1 117 3 is_stmt 1 view .LVU124
 345              		.loc 1 117 23 is_stmt 0 view .LVU125
 346 002c 0893     		str	r3, [sp, #32]
 118:Core/Src/tim.c ****   sConfig.IC2Selection = TIM_ICSELECTION_DIRECTTI;
 347              		.loc 1 118 3 is_stmt 1 view .LVU126
 348              		.loc 1 118 24 is_stmt 0 view .LVU127
 349 002e 0992     		str	r2, [sp, #36]
 119:Core/Src/tim.c ****   sConfig.IC2Prescaler = TIM_ICPSC_DIV1;
 350              		.loc 1 119 3 is_stmt 1 view .LVU128
 351              		.loc 1 119 24 is_stmt 0 view .LVU129
 352 0030 0A93     		str	r3, [sp, #40]
 120:Core/Src/tim.c ****   sConfig.IC2Filter = 0;
 353              		.loc 1 120 3 is_stmt 1 view .LVU130
 354              		.loc 1 120 21 is_stmt 0 view .LVU131
 355 0032 0B93     		str	r3, [sp, #44]
 121:Core/Src/tim.c ****   if (HAL_TIM_Encoder_Init(&htim3, &sConfig) != HAL_OK)
 356              		.loc 1 121 3 is_stmt 1 view .LVU132
 357              		.loc 1 121 7 is_stmt 0 view .LVU133
 358 0034 03A9     		add	r1, sp, #12
 359 0036 FFF7FEFF 		bl	HAL_TIM_Encoder_Init
 360              	.LVL8:
 361              		.loc 1 121 6 view .LVU134
 362 003a 50B9     		cbnz	r0, .L21
 363              	.L18:
 122:Core/Src/tim.c ****   {
 123:Core/Src/tim.c ****     Error_Handler();
 124:Core/Src/tim.c ****   }
 125:Core/Src/tim.c ****   sMasterConfig.MasterOutputTrigger = TIM_TRGO_RESET;
 364              		.loc 1 125 3 is_stmt 1 view .LVU135
 365              		.loc 1 125 37 is_stmt 0 view .LVU136
 366 003c 0023     		movs	r3, #0
 367 003e 0193     		str	r3, [sp, #4]
 126:Core/Src/tim.c ****   sMasterConfig.MasterSlaveMode = TIM_MASTERSLAVEMODE_DISABLE;
 368              		.loc 1 126 3 is_stmt 1 view .LVU137
 369              		.loc 1 126 33 is_stmt 0 view .LVU138
 370 0040 0293     		str	r3, [sp, #8]
 127:Core/Src/tim.c ****   if (HAL_TIMEx_MasterConfigSynchronization(&htim3, &sMasterConfig) != HAL_OK)
 371              		.loc 1 127 3 is_stmt 1 view .LVU139
 372              		.loc 1 127 7 is_stmt 0 view .LVU140
 373 0042 01A9     		add	r1, sp, #4
 374 0044 0648     		ldr	r0, .L23
 375 0046 FFF7FEFF 		bl	HAL_TIMEx_MasterConfigSynchronization
 376              	.LVL9:
 377              		.loc 1 127 6 view .LVU141
 378 004a 28B9     		cbnz	r0, .L22
 379              	.L17:
 128:Core/Src/tim.c ****   {
 129:Core/Src/tim.c ****     Error_Handler();
 130:Core/Src/tim.c ****   }
 131:Core/Src/tim.c **** 
 132:Core/Src/tim.c **** }
 380              		.loc 1 132 1 view .LVU142
 381 004c 0DB0     		add	sp, sp, #52
 382              	.LCFI10:
ARM GAS  C:\Users\one\AppData\Local\Temp\ccK6ff3Z.s 			page 10


 383              		.cfi_remember_state
 384              		.cfi_def_cfa_offset 4
 385              		@ sp needed
 386 004e 5DF804FB 		ldr	pc, [sp], #4
 387              	.L21:
 388              	.LCFI11:
 389              		.cfi_restore_state
 123:Core/Src/tim.c ****   }
 390              		.loc 1 123 5 is_stmt 1 view .LVU143
 391 0052 FFF7FEFF 		bl	Error_Handler
 392              	.LVL10:
 393 0056 F1E7     		b	.L18
 394              	.L22:
 129:Core/Src/tim.c ****   }
 395              		.loc 1 129 5 view .LVU144
 396 0058 FFF7FEFF 		bl	Error_Handler
 397              	.LVL11:
 398              		.loc 1 132 1 is_stmt 0 view .LVU145
 399 005c F6E7     		b	.L17
 400              	.L24:
 401 005e 00BF     		.align	2
 402              	.L23:
 403 0060 00000000 		.word	htim3
 404 0064 00040040 		.word	1073742848
 405              		.cfi_endproc
 406              	.LFE135:
 408              		.section	.text.MX_TIM4_Init,"ax",%progbits
 409              		.align	1
 410              		.global	MX_TIM4_Init
 411              		.syntax unified
 412              		.thumb
 413              		.thumb_func
 414              		.fpu fpv4-sp-d16
 416              	MX_TIM4_Init:
 417              	.LFB136:
 133:Core/Src/tim.c **** /* TIM4 init function */
 134:Core/Src/tim.c **** void MX_TIM4_Init(void)
 135:Core/Src/tim.c **** {
 418              		.loc 1 135 1 is_stmt 1 view -0
 419              		.cfi_startproc
 420              		@ args = 0, pretend = 0, frame = 48
 421              		@ frame_needed = 0, uses_anonymous_args = 0
 422 0000 00B5     		push	{lr}
 423              	.LCFI12:
 424              		.cfi_def_cfa_offset 4
 425              		.cfi_offset 14, -4
 426 0002 8DB0     		sub	sp, sp, #52
 427              	.LCFI13:
 428              		.cfi_def_cfa_offset 56
 136:Core/Src/tim.c ****   TIM_Encoder_InitTypeDef sConfig = {0};
 429              		.loc 1 136 3 view .LVU147
 137:Core/Src/tim.c ****   TIM_MasterConfigTypeDef sMasterConfig = {0};
 430              		.loc 1 137 3 view .LVU148
 431              		.loc 1 137 27 is_stmt 0 view .LVU149
 432 0004 0023     		movs	r3, #0
 433 0006 0193     		str	r3, [sp, #4]
 434 0008 0293     		str	r3, [sp, #8]
ARM GAS  C:\Users\one\AppData\Local\Temp\ccK6ff3Z.s 			page 11


 138:Core/Src/tim.c **** 
 139:Core/Src/tim.c ****   htim4.Instance = TIM4;
 435              		.loc 1 139 3 is_stmt 1 view .LVU150
 436              		.loc 1 139 18 is_stmt 0 view .LVU151
 437 000a 1548     		ldr	r0, .L31
 438 000c 154A     		ldr	r2, .L31+4
 439 000e 0260     		str	r2, [r0]
 140:Core/Src/tim.c ****   htim4.Init.Prescaler = 0;
 440              		.loc 1 140 3 is_stmt 1 view .LVU152
 441              		.loc 1 140 24 is_stmt 0 view .LVU153
 442 0010 4360     		str	r3, [r0, #4]
 141:Core/Src/tim.c ****   htim4.Init.CounterMode = TIM_COUNTERMODE_UP;
 443              		.loc 1 141 3 is_stmt 1 view .LVU154
 444              		.loc 1 141 26 is_stmt 0 view .LVU155
 445 0012 8360     		str	r3, [r0, #8]
 142:Core/Src/tim.c ****   htim4.Init.Period = 65535;
 446              		.loc 1 142 3 is_stmt 1 view .LVU156
 447              		.loc 1 142 21 is_stmt 0 view .LVU157
 448 0014 4FF6FF72 		movw	r2, #65535
 449 0018 C260     		str	r2, [r0, #12]
 143:Core/Src/tim.c ****   htim4.Init.ClockDivision = TIM_CLOCKDIVISION_DIV1;
 450              		.loc 1 143 3 is_stmt 1 view .LVU158
 451              		.loc 1 143 28 is_stmt 0 view .LVU159
 452 001a 0361     		str	r3, [r0, #16]
 144:Core/Src/tim.c ****   htim4.Init.AutoReloadPreload = TIM_AUTORELOAD_PRELOAD_DISABLE;
 453              		.loc 1 144 3 is_stmt 1 view .LVU160
 454              		.loc 1 144 32 is_stmt 0 view .LVU161
 455 001c 8361     		str	r3, [r0, #24]
 145:Core/Src/tim.c ****   sConfig.EncoderMode = TIM_ENCODERMODE_TI12;
 456              		.loc 1 145 3 is_stmt 1 view .LVU162
 457              		.loc 1 145 23 is_stmt 0 view .LVU163
 458 001e 0322     		movs	r2, #3
 459 0020 0392     		str	r2, [sp, #12]
 146:Core/Src/tim.c ****   sConfig.IC1Polarity = TIM_ICPOLARITY_RISING;
 460              		.loc 1 146 3 is_stmt 1 view .LVU164
 461              		.loc 1 146 23 is_stmt 0 view .LVU165
 462 0022 0493     		str	r3, [sp, #16]
 147:Core/Src/tim.c ****   sConfig.IC1Selection = TIM_ICSELECTION_DIRECTTI;
 463              		.loc 1 147 3 is_stmt 1 view .LVU166
 464              		.loc 1 147 24 is_stmt 0 view .LVU167
 465 0024 0122     		movs	r2, #1
 466 0026 0592     		str	r2, [sp, #20]
 148:Core/Src/tim.c ****   sConfig.IC1Prescaler = TIM_ICPSC_DIV1;
 467              		.loc 1 148 3 is_stmt 1 view .LVU168
 468              		.loc 1 148 24 is_stmt 0 view .LVU169
 469 0028 0693     		str	r3, [sp, #24]
 149:Core/Src/tim.c ****   sConfig.IC1Filter = 0;
 470              		.loc 1 149 3 is_stmt 1 view .LVU170
 471              		.loc 1 149 21 is_stmt 0 view .LVU171
 472 002a 0793     		str	r3, [sp, #28]
 150:Core/Src/tim.c ****   sConfig.IC2Polarity = TIM_ICPOLARITY_RISING;
 473              		.loc 1 150 3 is_stmt 1 view .LVU172
 474              		.loc 1 150 23 is_stmt 0 view .LVU173
 475 002c 0893     		str	r3, [sp, #32]
 151:Core/Src/tim.c ****   sConfig.IC2Selection = TIM_ICSELECTION_DIRECTTI;
 476              		.loc 1 151 3 is_stmt 1 view .LVU174
 477              		.loc 1 151 24 is_stmt 0 view .LVU175
ARM GAS  C:\Users\one\AppData\Local\Temp\ccK6ff3Z.s 			page 12


 478 002e 0992     		str	r2, [sp, #36]
 152:Core/Src/tim.c ****   sConfig.IC2Prescaler = TIM_ICPSC_DIV1;
 479              		.loc 1 152 3 is_stmt 1 view .LVU176
 480              		.loc 1 152 24 is_stmt 0 view .LVU177
 481 0030 0A93     		str	r3, [sp, #40]
 153:Core/Src/tim.c ****   sConfig.IC2Filter = 0;
 482              		.loc 1 153 3 is_stmt 1 view .LVU178
 483              		.loc 1 153 21 is_stmt 0 view .LVU179
 484 0032 0B93     		str	r3, [sp, #44]
 154:Core/Src/tim.c ****   if (HAL_TIM_Encoder_Init(&htim4, &sConfig) != HAL_OK)
 485              		.loc 1 154 3 is_stmt 1 view .LVU180
 486              		.loc 1 154 7 is_stmt 0 view .LVU181
 487 0034 03A9     		add	r1, sp, #12
 488 0036 FFF7FEFF 		bl	HAL_TIM_Encoder_Init
 489              	.LVL12:
 490              		.loc 1 154 6 view .LVU182
 491 003a 50B9     		cbnz	r0, .L29
 492              	.L26:
 155:Core/Src/tim.c ****   {
 156:Core/Src/tim.c ****     Error_Handler();
 157:Core/Src/tim.c ****   }
 158:Core/Src/tim.c ****   sMasterConfig.MasterOutputTrigger = TIM_TRGO_RESET;
 493              		.loc 1 158 3 is_stmt 1 view .LVU183
 494              		.loc 1 158 37 is_stmt 0 view .LVU184
 495 003c 0023     		movs	r3, #0
 496 003e 0193     		str	r3, [sp, #4]
 159:Core/Src/tim.c ****   sMasterConfig.MasterSlaveMode = TIM_MASTERSLAVEMODE_DISABLE;
 497              		.loc 1 159 3 is_stmt 1 view .LVU185
 498              		.loc 1 159 33 is_stmt 0 view .LVU186
 499 0040 0293     		str	r3, [sp, #8]
 160:Core/Src/tim.c ****   if (HAL_TIMEx_MasterConfigSynchronization(&htim4, &sMasterConfig) != HAL_OK)
 500              		.loc 1 160 3 is_stmt 1 view .LVU187
 501              		.loc 1 160 7 is_stmt 0 view .LVU188
 502 0042 01A9     		add	r1, sp, #4
 503 0044 0648     		ldr	r0, .L31
 504 0046 FFF7FEFF 		bl	HAL_TIMEx_MasterConfigSynchronization
 505              	.LVL13:
 506              		.loc 1 160 6 view .LVU189
 507 004a 28B9     		cbnz	r0, .L30
 508              	.L25:
 161:Core/Src/tim.c ****   {
 162:Core/Src/tim.c ****     Error_Handler();
 163:Core/Src/tim.c ****   }
 164:Core/Src/tim.c **** 
 165:Core/Src/tim.c **** }
 509              		.loc 1 165 1 view .LVU190
 510 004c 0DB0     		add	sp, sp, #52
 511              	.LCFI14:
 512              		.cfi_remember_state
 513              		.cfi_def_cfa_offset 4
 514              		@ sp needed
 515 004e 5DF804FB 		ldr	pc, [sp], #4
 516              	.L29:
 517              	.LCFI15:
 518              		.cfi_restore_state
 156:Core/Src/tim.c ****   }
 519              		.loc 1 156 5 is_stmt 1 view .LVU191
ARM GAS  C:\Users\one\AppData\Local\Temp\ccK6ff3Z.s 			page 13


 520 0052 FFF7FEFF 		bl	Error_Handler
 521              	.LVL14:
 522 0056 F1E7     		b	.L26
 523              	.L30:
 162:Core/Src/tim.c ****   }
 524              		.loc 1 162 5 view .LVU192
 525 0058 FFF7FEFF 		bl	Error_Handler
 526              	.LVL15:
 527              		.loc 1 165 1 is_stmt 0 view .LVU193
 528 005c F6E7     		b	.L25
 529              	.L32:
 530 005e 00BF     		.align	2
 531              	.L31:
 532 0060 00000000 		.word	htim4
 533 0064 00080040 		.word	1073743872
 534              		.cfi_endproc
 535              	.LFE136:
 537              		.section	.text.HAL_TIM_Encoder_MspInit,"ax",%progbits
 538              		.align	1
 539              		.global	HAL_TIM_Encoder_MspInit
 540              		.syntax unified
 541              		.thumb
 542              		.thumb_func
 543              		.fpu fpv4-sp-d16
 545              	HAL_TIM_Encoder_MspInit:
 546              	.LVL16:
 547              	.LFB138:
 166:Core/Src/tim.c **** /* TIM8 init function */
 167:Core/Src/tim.c **** void MX_TIM8_Init(void)
 168:Core/Src/tim.c **** {
 169:Core/Src/tim.c ****   TIM_MasterConfigTypeDef sMasterConfig = {0};
 170:Core/Src/tim.c ****   TIM_OC_InitTypeDef sConfigOC = {0};
 171:Core/Src/tim.c ****   TIM_BreakDeadTimeConfigTypeDef sBreakDeadTimeConfig = {0};
 172:Core/Src/tim.c **** 
 173:Core/Src/tim.c ****   htim8.Instance = TIM8;
 174:Core/Src/tim.c ****   htim8.Init.Prescaler = 0;
 175:Core/Src/tim.c ****   htim8.Init.CounterMode = TIM_COUNTERMODE_CENTERALIGNED1;
 176:Core/Src/tim.c ****   htim8.Init.Period = 10499;
 177:Core/Src/tim.c ****   htim8.Init.ClockDivision = TIM_CLOCKDIVISION_DIV1;
 178:Core/Src/tim.c ****   htim8.Init.RepetitionCounter = 0;
 179:Core/Src/tim.c ****   htim8.Init.AutoReloadPreload = TIM_AUTORELOAD_PRELOAD_DISABLE;
 180:Core/Src/tim.c ****   if (HAL_TIM_PWM_Init(&htim8) != HAL_OK)
 181:Core/Src/tim.c ****   {
 182:Core/Src/tim.c ****     Error_Handler();
 183:Core/Src/tim.c ****   }
 184:Core/Src/tim.c ****   sMasterConfig.MasterOutputTrigger = TIM_TRGO_RESET;
 185:Core/Src/tim.c ****   sMasterConfig.MasterSlaveMode = TIM_MASTERSLAVEMODE_DISABLE;
 186:Core/Src/tim.c ****   if (HAL_TIMEx_MasterConfigSynchronization(&htim8, &sMasterConfig) != HAL_OK)
 187:Core/Src/tim.c ****   {
 188:Core/Src/tim.c ****     Error_Handler();
 189:Core/Src/tim.c ****   }
 190:Core/Src/tim.c ****   sConfigOC.OCMode = TIM_OCMODE_PWM1;
 191:Core/Src/tim.c ****   sConfigOC.Pulse = 0;
 192:Core/Src/tim.c ****   sConfigOC.OCPolarity = TIM_OCPOLARITY_HIGH;
 193:Core/Src/tim.c ****   sConfigOC.OCNPolarity = TIM_OCNPOLARITY_HIGH;
 194:Core/Src/tim.c ****   sConfigOC.OCFastMode = TIM_OCFAST_DISABLE;
 195:Core/Src/tim.c ****   sConfigOC.OCIdleState = TIM_OCIDLESTATE_RESET;
ARM GAS  C:\Users\one\AppData\Local\Temp\ccK6ff3Z.s 			page 14


 196:Core/Src/tim.c ****   sConfigOC.OCNIdleState = TIM_OCNIDLESTATE_RESET;
 197:Core/Src/tim.c ****   if (HAL_TIM_PWM_ConfigChannel(&htim8, &sConfigOC, TIM_CHANNEL_1) != HAL_OK)
 198:Core/Src/tim.c ****   {
 199:Core/Src/tim.c ****     Error_Handler();
 200:Core/Src/tim.c ****   }
 201:Core/Src/tim.c ****   if (HAL_TIM_PWM_ConfigChannel(&htim8, &sConfigOC, TIM_CHANNEL_2) != HAL_OK)
 202:Core/Src/tim.c ****   {
 203:Core/Src/tim.c ****     Error_Handler();
 204:Core/Src/tim.c ****   }
 205:Core/Src/tim.c ****   if (HAL_TIM_PWM_ConfigChannel(&htim8, &sConfigOC, TIM_CHANNEL_3) != HAL_OK)
 206:Core/Src/tim.c ****   {
 207:Core/Src/tim.c ****     Error_Handler();
 208:Core/Src/tim.c ****   }
 209:Core/Src/tim.c ****   if (HAL_TIM_PWM_ConfigChannel(&htim8, &sConfigOC, TIM_CHANNEL_4) != HAL_OK)
 210:Core/Src/tim.c ****   {
 211:Core/Src/tim.c ****     Error_Handler();
 212:Core/Src/tim.c ****   }
 213:Core/Src/tim.c ****   sBreakDeadTimeConfig.OffStateRunMode = TIM_OSSR_DISABLE;
 214:Core/Src/tim.c ****   sBreakDeadTimeConfig.OffStateIDLEMode = TIM_OSSI_DISABLE;
 215:Core/Src/tim.c ****   sBreakDeadTimeConfig.LockLevel = TIM_LOCKLEVEL_OFF;
 216:Core/Src/tim.c ****   sBreakDeadTimeConfig.DeadTime = 0;
 217:Core/Src/tim.c ****   sBreakDeadTimeConfig.BreakState = TIM_BREAK_DISABLE;
 218:Core/Src/tim.c ****   sBreakDeadTimeConfig.BreakPolarity = TIM_BREAKPOLARITY_HIGH;
 219:Core/Src/tim.c ****   sBreakDeadTimeConfig.AutomaticOutput = TIM_AUTOMATICOUTPUT_DISABLE;
 220:Core/Src/tim.c ****   if (HAL_TIMEx_ConfigBreakDeadTime(&htim8, &sBreakDeadTimeConfig) != HAL_OK)
 221:Core/Src/tim.c ****   {
 222:Core/Src/tim.c ****     Error_Handler();
 223:Core/Src/tim.c ****   }
 224:Core/Src/tim.c ****   HAL_TIM_MspPostInit(&htim8);
 225:Core/Src/tim.c **** 
 226:Core/Src/tim.c **** }
 227:Core/Src/tim.c **** 
 228:Core/Src/tim.c **** void HAL_TIM_Encoder_MspInit(TIM_HandleTypeDef* tim_encoderHandle)
 229:Core/Src/tim.c **** {
 548              		.loc 1 229 1 is_stmt 1 view -0
 549              		.cfi_startproc
 550              		@ args = 0, pretend = 0, frame = 64
 551              		@ frame_needed = 0, uses_anonymous_args = 0
 552              		.loc 1 229 1 is_stmt 0 view .LVU195
 553 0000 70B5     		push	{r4, r5, r6, lr}
 554              	.LCFI16:
 555              		.cfi_def_cfa_offset 16
 556              		.cfi_offset 4, -16
 557              		.cfi_offset 5, -12
 558              		.cfi_offset 6, -8
 559              		.cfi_offset 14, -4
 560 0002 90B0     		sub	sp, sp, #64
 561              	.LCFI17:
 562              		.cfi_def_cfa_offset 80
 230:Core/Src/tim.c **** 
 231:Core/Src/tim.c ****   GPIO_InitTypeDef GPIO_InitStruct = {0};
 563              		.loc 1 231 3 is_stmt 1 view .LVU196
 564              		.loc 1 231 20 is_stmt 0 view .LVU197
 565 0004 0023     		movs	r3, #0
 566 0006 0B93     		str	r3, [sp, #44]
 567 0008 0C93     		str	r3, [sp, #48]
 568 000a 0D93     		str	r3, [sp, #52]
ARM GAS  C:\Users\one\AppData\Local\Temp\ccK6ff3Z.s 			page 15


 569 000c 0E93     		str	r3, [sp, #56]
 570 000e 0F93     		str	r3, [sp, #60]
 232:Core/Src/tim.c ****   if(tim_encoderHandle->Instance==TIM1)
 571              		.loc 1 232 3 is_stmt 1 view .LVU198
 572              		.loc 1 232 23 is_stmt 0 view .LVU199
 573 0010 0368     		ldr	r3, [r0]
 574              		.loc 1 232 5 view .LVU200
 575 0012 804A     		ldr	r2, .L43
 576 0014 9342     		cmp	r3, r2
 577 0016 0CD0     		beq	.L39
 233:Core/Src/tim.c ****   {
 234:Core/Src/tim.c ****   /* USER CODE BEGIN TIM1_MspInit 0 */
 235:Core/Src/tim.c **** 
 236:Core/Src/tim.c ****   /* USER CODE END TIM1_MspInit 0 */
 237:Core/Src/tim.c ****     /* TIM1 clock enable */
 238:Core/Src/tim.c ****     __HAL_RCC_TIM1_CLK_ENABLE();
 239:Core/Src/tim.c ****   
 240:Core/Src/tim.c ****     __HAL_RCC_GPIOE_CLK_ENABLE();
 241:Core/Src/tim.c ****     __HAL_RCC_GPIOA_CLK_ENABLE();
 242:Core/Src/tim.c ****     /**TIM1 GPIO Configuration    
 243:Core/Src/tim.c ****     PE11     ------> TIM1_CH2
 244:Core/Src/tim.c ****     PA8     ------> TIM1_CH1 
 245:Core/Src/tim.c ****     */
 246:Core/Src/tim.c ****     GPIO_InitStruct.Pin = GPIO_PIN_11;
 247:Core/Src/tim.c ****     GPIO_InitStruct.Mode = GPIO_MODE_AF_PP;
 248:Core/Src/tim.c ****     GPIO_InitStruct.Pull = GPIO_PULLUP;
 249:Core/Src/tim.c ****     GPIO_InitStruct.Speed = GPIO_SPEED_FREQ_LOW;
 250:Core/Src/tim.c ****     GPIO_InitStruct.Alternate = GPIO_AF1_TIM1;
 251:Core/Src/tim.c ****     HAL_GPIO_Init(GPIOE, &GPIO_InitStruct);
 252:Core/Src/tim.c **** 
 253:Core/Src/tim.c ****     GPIO_InitStruct.Pin = GPIO_PIN_8;
 254:Core/Src/tim.c ****     GPIO_InitStruct.Mode = GPIO_MODE_AF_PP;
 255:Core/Src/tim.c ****     GPIO_InitStruct.Pull = GPIO_PULLUP;
 256:Core/Src/tim.c ****     GPIO_InitStruct.Speed = GPIO_SPEED_FREQ_LOW;
 257:Core/Src/tim.c ****     GPIO_InitStruct.Alternate = GPIO_AF1_TIM1;
 258:Core/Src/tim.c ****     HAL_GPIO_Init(GPIOA, &GPIO_InitStruct);
 259:Core/Src/tim.c **** 
 260:Core/Src/tim.c ****     /* TIM1 interrupt Init */
 261:Core/Src/tim.c ****     HAL_NVIC_SetPriority(TIM1_BRK_TIM9_IRQn, 0, 0);
 262:Core/Src/tim.c ****     HAL_NVIC_EnableIRQ(TIM1_BRK_TIM9_IRQn);
 263:Core/Src/tim.c ****     HAL_NVIC_SetPriority(TIM1_UP_TIM10_IRQn, 0, 0);
 264:Core/Src/tim.c ****     HAL_NVIC_EnableIRQ(TIM1_UP_TIM10_IRQn);
 265:Core/Src/tim.c ****     HAL_NVIC_SetPriority(TIM1_TRG_COM_TIM11_IRQn, 0, 0);
 266:Core/Src/tim.c ****     HAL_NVIC_EnableIRQ(TIM1_TRG_COM_TIM11_IRQn);
 267:Core/Src/tim.c ****     HAL_NVIC_SetPriority(TIM1_CC_IRQn, 0, 0);
 268:Core/Src/tim.c ****     HAL_NVIC_EnableIRQ(TIM1_CC_IRQn);
 269:Core/Src/tim.c ****   /* USER CODE BEGIN TIM1_MspInit 1 */
 270:Core/Src/tim.c **** 
 271:Core/Src/tim.c ****   /* USER CODE END TIM1_MspInit 1 */
 272:Core/Src/tim.c ****   }
 273:Core/Src/tim.c ****   else if(tim_encoderHandle->Instance==TIM2)
 578              		.loc 1 273 8 is_stmt 1 view .LVU201
 579              		.loc 1 273 10 is_stmt 0 view .LVU202
 580 0018 B3F1804F 		cmp	r3, #1073741824
 581 001c 62D0     		beq	.L40
 274:Core/Src/tim.c ****   {
 275:Core/Src/tim.c ****   /* USER CODE BEGIN TIM2_MspInit 0 */
ARM GAS  C:\Users\one\AppData\Local\Temp\ccK6ff3Z.s 			page 16


 276:Core/Src/tim.c **** 
 277:Core/Src/tim.c ****   /* USER CODE END TIM2_MspInit 0 */
 278:Core/Src/tim.c ****     /* TIM2 clock enable */
 279:Core/Src/tim.c ****     __HAL_RCC_TIM2_CLK_ENABLE();
 280:Core/Src/tim.c ****   
 281:Core/Src/tim.c ****     __HAL_RCC_GPIOA_CLK_ENABLE();
 282:Core/Src/tim.c ****     /**TIM2 GPIO Configuration    
 283:Core/Src/tim.c ****     PA1     ------> TIM2_CH2
 284:Core/Src/tim.c ****     PA15     ------> TIM2_CH1 
 285:Core/Src/tim.c ****     */
 286:Core/Src/tim.c ****     GPIO_InitStruct.Pin = GPIO_PIN_1|GPIO_PIN_15;
 287:Core/Src/tim.c ****     GPIO_InitStruct.Mode = GPIO_MODE_AF_PP;
 288:Core/Src/tim.c ****     GPIO_InitStruct.Pull = GPIO_PULLUP;
 289:Core/Src/tim.c ****     GPIO_InitStruct.Speed = GPIO_SPEED_FREQ_LOW;
 290:Core/Src/tim.c ****     GPIO_InitStruct.Alternate = GPIO_AF1_TIM2;
 291:Core/Src/tim.c ****     HAL_GPIO_Init(GPIOA, &GPIO_InitStruct);
 292:Core/Src/tim.c **** 
 293:Core/Src/tim.c ****     /* TIM2 interrupt Init */
 294:Core/Src/tim.c ****     HAL_NVIC_SetPriority(TIM2_IRQn, 0, 0);
 295:Core/Src/tim.c ****     HAL_NVIC_EnableIRQ(TIM2_IRQn);
 296:Core/Src/tim.c ****   /* USER CODE BEGIN TIM2_MspInit 1 */
 297:Core/Src/tim.c **** 
 298:Core/Src/tim.c ****   /* USER CODE END TIM2_MspInit 1 */
 299:Core/Src/tim.c ****   }
 300:Core/Src/tim.c ****   else if(tim_encoderHandle->Instance==TIM3)
 582              		.loc 1 300 8 is_stmt 1 view .LVU203
 583              		.loc 1 300 10 is_stmt 0 view .LVU204
 584 001e 7E4A     		ldr	r2, .L43+4
 585 0020 9342     		cmp	r3, r2
 586 0022 00F08C80 		beq	.L41
 301:Core/Src/tim.c ****   {
 302:Core/Src/tim.c ****   /* USER CODE BEGIN TIM3_MspInit 0 */
 303:Core/Src/tim.c **** 
 304:Core/Src/tim.c ****   /* USER CODE END TIM3_MspInit 0 */
 305:Core/Src/tim.c ****     /* TIM3 clock enable */
 306:Core/Src/tim.c ****     __HAL_RCC_TIM3_CLK_ENABLE();
 307:Core/Src/tim.c ****   
 308:Core/Src/tim.c ****     __HAL_RCC_GPIOA_CLK_ENABLE();
 309:Core/Src/tim.c ****     __HAL_RCC_GPIOB_CLK_ENABLE();
 310:Core/Src/tim.c ****     /**TIM3 GPIO Configuration    
 311:Core/Src/tim.c ****     PA7     ------> TIM3_CH2
 312:Core/Src/tim.c ****     PB4     ------> TIM3_CH1 
 313:Core/Src/tim.c ****     */
 314:Core/Src/tim.c ****     GPIO_InitStruct.Pin = GPIO_PIN_7;
 315:Core/Src/tim.c ****     GPIO_InitStruct.Mode = GPIO_MODE_AF_PP;
 316:Core/Src/tim.c ****     GPIO_InitStruct.Pull = GPIO_PULLUP;
 317:Core/Src/tim.c ****     GPIO_InitStruct.Speed = GPIO_SPEED_FREQ_LOW;
 318:Core/Src/tim.c ****     GPIO_InitStruct.Alternate = GPIO_AF2_TIM3;
 319:Core/Src/tim.c ****     HAL_GPIO_Init(GPIOA, &GPIO_InitStruct);
 320:Core/Src/tim.c **** 
 321:Core/Src/tim.c ****     GPIO_InitStruct.Pin = GPIO_PIN_4;
 322:Core/Src/tim.c ****     GPIO_InitStruct.Mode = GPIO_MODE_AF_PP;
 323:Core/Src/tim.c ****     GPIO_InitStruct.Pull = GPIO_PULLUP;
 324:Core/Src/tim.c ****     GPIO_InitStruct.Speed = GPIO_SPEED_FREQ_LOW;
 325:Core/Src/tim.c ****     GPIO_InitStruct.Alternate = GPIO_AF2_TIM3;
 326:Core/Src/tim.c ****     HAL_GPIO_Init(GPIOB, &GPIO_InitStruct);
 327:Core/Src/tim.c **** 
ARM GAS  C:\Users\one\AppData\Local\Temp\ccK6ff3Z.s 			page 17


 328:Core/Src/tim.c ****     /* TIM3 interrupt Init */
 329:Core/Src/tim.c ****     HAL_NVIC_SetPriority(TIM3_IRQn, 0, 0);
 330:Core/Src/tim.c ****     HAL_NVIC_EnableIRQ(TIM3_IRQn);
 331:Core/Src/tim.c ****   /* USER CODE BEGIN TIM3_MspInit 1 */
 332:Core/Src/tim.c **** 
 333:Core/Src/tim.c ****   /* USER CODE END TIM3_MspInit 1 */
 334:Core/Src/tim.c ****   }
 335:Core/Src/tim.c ****   else if(tim_encoderHandle->Instance==TIM4)
 587              		.loc 1 335 8 is_stmt 1 view .LVU205
 588              		.loc 1 335 10 is_stmt 0 view .LVU206
 589 0026 7D4A     		ldr	r2, .L43+8
 590 0028 9342     		cmp	r3, r2
 591 002a 00F0C780 		beq	.L42
 592              	.LVL17:
 593              	.L33:
 336:Core/Src/tim.c ****   {
 337:Core/Src/tim.c ****   /* USER CODE BEGIN TIM4_MspInit 0 */
 338:Core/Src/tim.c **** 
 339:Core/Src/tim.c ****   /* USER CODE END TIM4_MspInit 0 */
 340:Core/Src/tim.c ****     /* TIM4 clock enable */
 341:Core/Src/tim.c ****     __HAL_RCC_TIM4_CLK_ENABLE();
 342:Core/Src/tim.c ****   
 343:Core/Src/tim.c ****     __HAL_RCC_GPIOB_CLK_ENABLE();
 344:Core/Src/tim.c ****     /**TIM4 GPIO Configuration    
 345:Core/Src/tim.c ****     PB6     ------> TIM4_CH1
 346:Core/Src/tim.c ****     PB7     ------> TIM4_CH2 
 347:Core/Src/tim.c ****     */
 348:Core/Src/tim.c ****     GPIO_InitStruct.Pin = GPIO_PIN_6|GPIO_PIN_7;
 349:Core/Src/tim.c ****     GPIO_InitStruct.Mode = GPIO_MODE_AF_PP;
 350:Core/Src/tim.c ****     GPIO_InitStruct.Pull = GPIO_PULLUP;
 351:Core/Src/tim.c ****     GPIO_InitStruct.Speed = GPIO_SPEED_FREQ_LOW;
 352:Core/Src/tim.c ****     GPIO_InitStruct.Alternate = GPIO_AF2_TIM4;
 353:Core/Src/tim.c ****     HAL_GPIO_Init(GPIOB, &GPIO_InitStruct);
 354:Core/Src/tim.c **** 
 355:Core/Src/tim.c ****     /* TIM4 interrupt Init */
 356:Core/Src/tim.c ****     HAL_NVIC_SetPriority(TIM4_IRQn, 0, 0);
 357:Core/Src/tim.c ****     HAL_NVIC_EnableIRQ(TIM4_IRQn);
 358:Core/Src/tim.c ****   /* USER CODE BEGIN TIM4_MspInit 1 */
 359:Core/Src/tim.c **** 
 360:Core/Src/tim.c ****   /* USER CODE END TIM4_MspInit 1 */
 361:Core/Src/tim.c ****   }
 362:Core/Src/tim.c **** }
 594              		.loc 1 362 1 view .LVU207
 595 002e 10B0     		add	sp, sp, #64
 596              	.LCFI18:
 597              		.cfi_remember_state
 598              		.cfi_def_cfa_offset 16
 599              		@ sp needed
 600 0030 70BD     		pop	{r4, r5, r6, pc}
 601              	.LVL18:
 602              	.L39:
 603              	.LCFI19:
 604              		.cfi_restore_state
 238:Core/Src/tim.c ****   
 605              		.loc 1 238 5 is_stmt 1 view .LVU208
 606              	.LBB2:
 238:Core/Src/tim.c ****   
ARM GAS  C:\Users\one\AppData\Local\Temp\ccK6ff3Z.s 			page 18


 607              		.loc 1 238 5 view .LVU209
 608 0032 0024     		movs	r4, #0
 609 0034 0194     		str	r4, [sp, #4]
 238:Core/Src/tim.c ****   
 610              		.loc 1 238 5 view .LVU210
 611 0036 7A4B     		ldr	r3, .L43+12
 612 0038 5A6C     		ldr	r2, [r3, #68]
 613 003a 42F00102 		orr	r2, r2, #1
 614 003e 5A64     		str	r2, [r3, #68]
 238:Core/Src/tim.c ****   
 615              		.loc 1 238 5 view .LVU211
 616 0040 5A6C     		ldr	r2, [r3, #68]
 617 0042 02F00102 		and	r2, r2, #1
 618 0046 0192     		str	r2, [sp, #4]
 238:Core/Src/tim.c ****   
 619              		.loc 1 238 5 view .LVU212
 620 0048 019A     		ldr	r2, [sp, #4]
 621              	.LBE2:
 238:Core/Src/tim.c ****   
 622              		.loc 1 238 5 view .LVU213
 240:Core/Src/tim.c ****     __HAL_RCC_GPIOA_CLK_ENABLE();
 623              		.loc 1 240 5 view .LVU214
 624              	.LBB3:
 240:Core/Src/tim.c ****     __HAL_RCC_GPIOA_CLK_ENABLE();
 625              		.loc 1 240 5 view .LVU215
 626 004a 0294     		str	r4, [sp, #8]
 240:Core/Src/tim.c ****     __HAL_RCC_GPIOA_CLK_ENABLE();
 627              		.loc 1 240 5 view .LVU216
 628 004c 1A6B     		ldr	r2, [r3, #48]
 629 004e 42F01002 		orr	r2, r2, #16
 630 0052 1A63     		str	r2, [r3, #48]
 240:Core/Src/tim.c ****     __HAL_RCC_GPIOA_CLK_ENABLE();
 631              		.loc 1 240 5 view .LVU217
 632 0054 1A6B     		ldr	r2, [r3, #48]
 633 0056 02F01002 		and	r2, r2, #16
 634 005a 0292     		str	r2, [sp, #8]
 240:Core/Src/tim.c ****     __HAL_RCC_GPIOA_CLK_ENABLE();
 635              		.loc 1 240 5 view .LVU218
 636 005c 029A     		ldr	r2, [sp, #8]
 637              	.LBE3:
 240:Core/Src/tim.c ****     __HAL_RCC_GPIOA_CLK_ENABLE();
 638              		.loc 1 240 5 view .LVU219
 241:Core/Src/tim.c ****     /**TIM1 GPIO Configuration    
 639              		.loc 1 241 5 view .LVU220
 640              	.LBB4:
 241:Core/Src/tim.c ****     /**TIM1 GPIO Configuration    
 641              		.loc 1 241 5 view .LVU221
 642 005e 0394     		str	r4, [sp, #12]
 241:Core/Src/tim.c ****     /**TIM1 GPIO Configuration    
 643              		.loc 1 241 5 view .LVU222
 644 0060 1A6B     		ldr	r2, [r3, #48]
 645 0062 42F00102 		orr	r2, r2, #1
 646 0066 1A63     		str	r2, [r3, #48]
 241:Core/Src/tim.c ****     /**TIM1 GPIO Configuration    
 647              		.loc 1 241 5 view .LVU223
 648 0068 1B6B     		ldr	r3, [r3, #48]
 649 006a 03F00103 		and	r3, r3, #1
ARM GAS  C:\Users\one\AppData\Local\Temp\ccK6ff3Z.s 			page 19


 650 006e 0393     		str	r3, [sp, #12]
 241:Core/Src/tim.c ****     /**TIM1 GPIO Configuration    
 651              		.loc 1 241 5 view .LVU224
 652 0070 039B     		ldr	r3, [sp, #12]
 653              	.LBE4:
 241:Core/Src/tim.c ****     /**TIM1 GPIO Configuration    
 654              		.loc 1 241 5 view .LVU225
 246:Core/Src/tim.c ****     GPIO_InitStruct.Mode = GPIO_MODE_AF_PP;
 655              		.loc 1 246 5 view .LVU226
 246:Core/Src/tim.c ****     GPIO_InitStruct.Mode = GPIO_MODE_AF_PP;
 656              		.loc 1 246 25 is_stmt 0 view .LVU227
 657 0072 4FF40063 		mov	r3, #2048
 658 0076 0B93     		str	r3, [sp, #44]
 247:Core/Src/tim.c ****     GPIO_InitStruct.Pull = GPIO_PULLUP;
 659              		.loc 1 247 5 is_stmt 1 view .LVU228
 247:Core/Src/tim.c ****     GPIO_InitStruct.Pull = GPIO_PULLUP;
 660              		.loc 1 247 26 is_stmt 0 view .LVU229
 661 0078 0226     		movs	r6, #2
 662 007a 0C96     		str	r6, [sp, #48]
 248:Core/Src/tim.c ****     GPIO_InitStruct.Speed = GPIO_SPEED_FREQ_LOW;
 663              		.loc 1 248 5 is_stmt 1 view .LVU230
 248:Core/Src/tim.c ****     GPIO_InitStruct.Speed = GPIO_SPEED_FREQ_LOW;
 664              		.loc 1 248 26 is_stmt 0 view .LVU231
 665 007c 0125     		movs	r5, #1
 666 007e 0D95     		str	r5, [sp, #52]
 249:Core/Src/tim.c ****     GPIO_InitStruct.Alternate = GPIO_AF1_TIM1;
 667              		.loc 1 249 5 is_stmt 1 view .LVU232
 249:Core/Src/tim.c ****     GPIO_InitStruct.Alternate = GPIO_AF1_TIM1;
 668              		.loc 1 249 27 is_stmt 0 view .LVU233
 669 0080 0E94     		str	r4, [sp, #56]
 250:Core/Src/tim.c ****     HAL_GPIO_Init(GPIOE, &GPIO_InitStruct);
 670              		.loc 1 250 5 is_stmt 1 view .LVU234
 250:Core/Src/tim.c ****     HAL_GPIO_Init(GPIOE, &GPIO_InitStruct);
 671              		.loc 1 250 31 is_stmt 0 view .LVU235
 672 0082 0F95     		str	r5, [sp, #60]
 251:Core/Src/tim.c **** 
 673              		.loc 1 251 5 is_stmt 1 view .LVU236
 674 0084 0BA9     		add	r1, sp, #44
 675 0086 6748     		ldr	r0, .L43+16
 676              	.LVL19:
 251:Core/Src/tim.c **** 
 677              		.loc 1 251 5 is_stmt 0 view .LVU237
 678 0088 FFF7FEFF 		bl	HAL_GPIO_Init
 679              	.LVL20:
 253:Core/Src/tim.c ****     GPIO_InitStruct.Mode = GPIO_MODE_AF_PP;
 680              		.loc 1 253 5 is_stmt 1 view .LVU238
 253:Core/Src/tim.c ****     GPIO_InitStruct.Mode = GPIO_MODE_AF_PP;
 681              		.loc 1 253 25 is_stmt 0 view .LVU239
 682 008c 4FF48073 		mov	r3, #256
 683 0090 0B93     		str	r3, [sp, #44]
 254:Core/Src/tim.c ****     GPIO_InitStruct.Pull = GPIO_PULLUP;
 684              		.loc 1 254 5 is_stmt 1 view .LVU240
 254:Core/Src/tim.c ****     GPIO_InitStruct.Pull = GPIO_PULLUP;
 685              		.loc 1 254 26 is_stmt 0 view .LVU241
 686 0092 0C96     		str	r6, [sp, #48]
 255:Core/Src/tim.c ****     GPIO_InitStruct.Speed = GPIO_SPEED_FREQ_LOW;
 687              		.loc 1 255 5 is_stmt 1 view .LVU242
ARM GAS  C:\Users\one\AppData\Local\Temp\ccK6ff3Z.s 			page 20


 255:Core/Src/tim.c ****     GPIO_InitStruct.Speed = GPIO_SPEED_FREQ_LOW;
 688              		.loc 1 255 26 is_stmt 0 view .LVU243
 689 0094 0D95     		str	r5, [sp, #52]
 256:Core/Src/tim.c ****     GPIO_InitStruct.Alternate = GPIO_AF1_TIM1;
 690              		.loc 1 256 5 is_stmt 1 view .LVU244
 256:Core/Src/tim.c ****     GPIO_InitStruct.Alternate = GPIO_AF1_TIM1;
 691              		.loc 1 256 27 is_stmt 0 view .LVU245
 692 0096 0E94     		str	r4, [sp, #56]
 257:Core/Src/tim.c ****     HAL_GPIO_Init(GPIOA, &GPIO_InitStruct);
 693              		.loc 1 257 5 is_stmt 1 view .LVU246
 257:Core/Src/tim.c ****     HAL_GPIO_Init(GPIOA, &GPIO_InitStruct);
 694              		.loc 1 257 31 is_stmt 0 view .LVU247
 695 0098 0F95     		str	r5, [sp, #60]
 258:Core/Src/tim.c **** 
 696              		.loc 1 258 5 is_stmt 1 view .LVU248
 697 009a 0BA9     		add	r1, sp, #44
 698 009c 6248     		ldr	r0, .L43+20
 699 009e FFF7FEFF 		bl	HAL_GPIO_Init
 700              	.LVL21:
 261:Core/Src/tim.c ****     HAL_NVIC_EnableIRQ(TIM1_BRK_TIM9_IRQn);
 701              		.loc 1 261 5 view .LVU249
 702 00a2 2246     		mov	r2, r4
 703 00a4 2146     		mov	r1, r4
 704 00a6 1820     		movs	r0, #24
 705 00a8 FFF7FEFF 		bl	HAL_NVIC_SetPriority
 706              	.LVL22:
 262:Core/Src/tim.c ****     HAL_NVIC_SetPriority(TIM1_UP_TIM10_IRQn, 0, 0);
 707              		.loc 1 262 5 view .LVU250
 708 00ac 1820     		movs	r0, #24
 709 00ae FFF7FEFF 		bl	HAL_NVIC_EnableIRQ
 710              	.LVL23:
 263:Core/Src/tim.c ****     HAL_NVIC_EnableIRQ(TIM1_UP_TIM10_IRQn);
 711              		.loc 1 263 5 view .LVU251
 712 00b2 2246     		mov	r2, r4
 713 00b4 2146     		mov	r1, r4
 714 00b6 1920     		movs	r0, #25
 715 00b8 FFF7FEFF 		bl	HAL_NVIC_SetPriority
 716              	.LVL24:
 264:Core/Src/tim.c ****     HAL_NVIC_SetPriority(TIM1_TRG_COM_TIM11_IRQn, 0, 0);
 717              		.loc 1 264 5 view .LVU252
 718 00bc 1920     		movs	r0, #25
 719 00be FFF7FEFF 		bl	HAL_NVIC_EnableIRQ
 720              	.LVL25:
 265:Core/Src/tim.c ****     HAL_NVIC_EnableIRQ(TIM1_TRG_COM_TIM11_IRQn);
 721              		.loc 1 265 5 view .LVU253
 722 00c2 2246     		mov	r2, r4
 723 00c4 2146     		mov	r1, r4
 724 00c6 1A20     		movs	r0, #26
 725 00c8 FFF7FEFF 		bl	HAL_NVIC_SetPriority
 726              	.LVL26:
 266:Core/Src/tim.c ****     HAL_NVIC_SetPriority(TIM1_CC_IRQn, 0, 0);
 727              		.loc 1 266 5 view .LVU254
 728 00cc 1A20     		movs	r0, #26
 729 00ce FFF7FEFF 		bl	HAL_NVIC_EnableIRQ
 730              	.LVL27:
 267:Core/Src/tim.c ****     HAL_NVIC_EnableIRQ(TIM1_CC_IRQn);
 731              		.loc 1 267 5 view .LVU255
ARM GAS  C:\Users\one\AppData\Local\Temp\ccK6ff3Z.s 			page 21


 732 00d2 2246     		mov	r2, r4
 733 00d4 2146     		mov	r1, r4
 734 00d6 1B20     		movs	r0, #27
 735 00d8 FFF7FEFF 		bl	HAL_NVIC_SetPriority
 736              	.LVL28:
 268:Core/Src/tim.c ****   /* USER CODE BEGIN TIM1_MspInit 1 */
 737              		.loc 1 268 5 view .LVU256
 738 00dc 1B20     		movs	r0, #27
 739 00de FFF7FEFF 		bl	HAL_NVIC_EnableIRQ
 740              	.LVL29:
 741 00e2 A4E7     		b	.L33
 742              	.LVL30:
 743              	.L40:
 279:Core/Src/tim.c ****   
 744              		.loc 1 279 5 view .LVU257
 745              	.LBB5:
 279:Core/Src/tim.c ****   
 746              		.loc 1 279 5 view .LVU258
 747 00e4 0024     		movs	r4, #0
 748 00e6 0494     		str	r4, [sp, #16]
 279:Core/Src/tim.c ****   
 749              		.loc 1 279 5 view .LVU259
 750 00e8 03F50E33 		add	r3, r3, #145408
 751 00ec 1A6C     		ldr	r2, [r3, #64]
 752 00ee 42F00102 		orr	r2, r2, #1
 753 00f2 1A64     		str	r2, [r3, #64]
 279:Core/Src/tim.c ****   
 754              		.loc 1 279 5 view .LVU260
 755 00f4 1A6C     		ldr	r2, [r3, #64]
 756 00f6 02F00102 		and	r2, r2, #1
 757 00fa 0492     		str	r2, [sp, #16]
 279:Core/Src/tim.c ****   
 758              		.loc 1 279 5 view .LVU261
 759 00fc 049A     		ldr	r2, [sp, #16]
 760              	.LBE5:
 279:Core/Src/tim.c ****   
 761              		.loc 1 279 5 view .LVU262
 281:Core/Src/tim.c ****     /**TIM2 GPIO Configuration    
 762              		.loc 1 281 5 view .LVU263
 763              	.LBB6:
 281:Core/Src/tim.c ****     /**TIM2 GPIO Configuration    
 764              		.loc 1 281 5 view .LVU264
 765 00fe 0594     		str	r4, [sp, #20]
 281:Core/Src/tim.c ****     /**TIM2 GPIO Configuration    
 766              		.loc 1 281 5 view .LVU265
 767 0100 1A6B     		ldr	r2, [r3, #48]
 768 0102 42F00102 		orr	r2, r2, #1
 769 0106 1A63     		str	r2, [r3, #48]
 281:Core/Src/tim.c ****     /**TIM2 GPIO Configuration    
 770              		.loc 1 281 5 view .LVU266
 771 0108 1B6B     		ldr	r3, [r3, #48]
 772 010a 03F00103 		and	r3, r3, #1
 773 010e 0593     		str	r3, [sp, #20]
 281:Core/Src/tim.c ****     /**TIM2 GPIO Configuration    
 774              		.loc 1 281 5 view .LVU267
 775 0110 059B     		ldr	r3, [sp, #20]
 776              	.LBE6:
ARM GAS  C:\Users\one\AppData\Local\Temp\ccK6ff3Z.s 			page 22


 281:Core/Src/tim.c ****     /**TIM2 GPIO Configuration    
 777              		.loc 1 281 5 view .LVU268
 286:Core/Src/tim.c ****     GPIO_InitStruct.Mode = GPIO_MODE_AF_PP;
 778              		.loc 1 286 5 view .LVU269
 286:Core/Src/tim.c ****     GPIO_InitStruct.Mode = GPIO_MODE_AF_PP;
 779              		.loc 1 286 25 is_stmt 0 view .LVU270
 780 0112 48F20203 		movw	r3, #32770
 781 0116 0B93     		str	r3, [sp, #44]
 287:Core/Src/tim.c ****     GPIO_InitStruct.Pull = GPIO_PULLUP;
 782              		.loc 1 287 5 is_stmt 1 view .LVU271
 287:Core/Src/tim.c ****     GPIO_InitStruct.Pull = GPIO_PULLUP;
 783              		.loc 1 287 26 is_stmt 0 view .LVU272
 784 0118 0223     		movs	r3, #2
 785 011a 0C93     		str	r3, [sp, #48]
 288:Core/Src/tim.c ****     GPIO_InitStruct.Speed = GPIO_SPEED_FREQ_LOW;
 786              		.loc 1 288 5 is_stmt 1 view .LVU273
 288:Core/Src/tim.c ****     GPIO_InitStruct.Speed = GPIO_SPEED_FREQ_LOW;
 787              		.loc 1 288 26 is_stmt 0 view .LVU274
 788 011c 0123     		movs	r3, #1
 789 011e 0D93     		str	r3, [sp, #52]
 289:Core/Src/tim.c ****     GPIO_InitStruct.Alternate = GPIO_AF1_TIM2;
 790              		.loc 1 289 5 is_stmt 1 view .LVU275
 289:Core/Src/tim.c ****     GPIO_InitStruct.Alternate = GPIO_AF1_TIM2;
 791              		.loc 1 289 27 is_stmt 0 view .LVU276
 792 0120 0E94     		str	r4, [sp, #56]
 290:Core/Src/tim.c ****     HAL_GPIO_Init(GPIOA, &GPIO_InitStruct);
 793              		.loc 1 290 5 is_stmt 1 view .LVU277
 290:Core/Src/tim.c ****     HAL_GPIO_Init(GPIOA, &GPIO_InitStruct);
 794              		.loc 1 290 31 is_stmt 0 view .LVU278
 795 0122 0F93     		str	r3, [sp, #60]
 291:Core/Src/tim.c **** 
 796              		.loc 1 291 5 is_stmt 1 view .LVU279
 797 0124 0BA9     		add	r1, sp, #44
 798 0126 4048     		ldr	r0, .L43+20
 799              	.LVL31:
 291:Core/Src/tim.c **** 
 800              		.loc 1 291 5 is_stmt 0 view .LVU280
 801 0128 FFF7FEFF 		bl	HAL_GPIO_Init
 802              	.LVL32:
 294:Core/Src/tim.c ****     HAL_NVIC_EnableIRQ(TIM2_IRQn);
 803              		.loc 1 294 5 is_stmt 1 view .LVU281
 804 012c 2246     		mov	r2, r4
 805 012e 2146     		mov	r1, r4
 806 0130 1C20     		movs	r0, #28
 807 0132 FFF7FEFF 		bl	HAL_NVIC_SetPriority
 808              	.LVL33:
 295:Core/Src/tim.c ****   /* USER CODE BEGIN TIM2_MspInit 1 */
 809              		.loc 1 295 5 view .LVU282
 810 0136 1C20     		movs	r0, #28
 811 0138 FFF7FEFF 		bl	HAL_NVIC_EnableIRQ
 812              	.LVL34:
 813 013c 77E7     		b	.L33
 814              	.LVL35:
 815              	.L41:
 306:Core/Src/tim.c ****   
 816              		.loc 1 306 5 view .LVU283
 817              	.LBB7:
ARM GAS  C:\Users\one\AppData\Local\Temp\ccK6ff3Z.s 			page 23


 306:Core/Src/tim.c ****   
 818              		.loc 1 306 5 view .LVU284
 819 013e 0024     		movs	r4, #0
 820 0140 0694     		str	r4, [sp, #24]
 306:Core/Src/tim.c ****   
 821              		.loc 1 306 5 view .LVU285
 822 0142 374B     		ldr	r3, .L43+12
 823 0144 1A6C     		ldr	r2, [r3, #64]
 824 0146 42F00202 		orr	r2, r2, #2
 825 014a 1A64     		str	r2, [r3, #64]
 306:Core/Src/tim.c ****   
 826              		.loc 1 306 5 view .LVU286
 827 014c 1A6C     		ldr	r2, [r3, #64]
 828 014e 02F00202 		and	r2, r2, #2
 829 0152 0692     		str	r2, [sp, #24]
 306:Core/Src/tim.c ****   
 830              		.loc 1 306 5 view .LVU287
 831 0154 069A     		ldr	r2, [sp, #24]
 832              	.LBE7:
 306:Core/Src/tim.c ****   
 833              		.loc 1 306 5 view .LVU288
 308:Core/Src/tim.c ****     __HAL_RCC_GPIOB_CLK_ENABLE();
 834              		.loc 1 308 5 view .LVU289
 835              	.LBB8:
 308:Core/Src/tim.c ****     __HAL_RCC_GPIOB_CLK_ENABLE();
 836              		.loc 1 308 5 view .LVU290
 837 0156 0794     		str	r4, [sp, #28]
 308:Core/Src/tim.c ****     __HAL_RCC_GPIOB_CLK_ENABLE();
 838              		.loc 1 308 5 view .LVU291
 839 0158 1A6B     		ldr	r2, [r3, #48]
 840 015a 42F00102 		orr	r2, r2, #1
 841 015e 1A63     		str	r2, [r3, #48]
 308:Core/Src/tim.c ****     __HAL_RCC_GPIOB_CLK_ENABLE();
 842              		.loc 1 308 5 view .LVU292
 843 0160 1A6B     		ldr	r2, [r3, #48]
 844 0162 02F00102 		and	r2, r2, #1
 845 0166 0792     		str	r2, [sp, #28]
 308:Core/Src/tim.c ****     __HAL_RCC_GPIOB_CLK_ENABLE();
 846              		.loc 1 308 5 view .LVU293
 847 0168 079A     		ldr	r2, [sp, #28]
 848              	.LBE8:
 308:Core/Src/tim.c ****     __HAL_RCC_GPIOB_CLK_ENABLE();
 849              		.loc 1 308 5 view .LVU294
 309:Core/Src/tim.c ****     /**TIM3 GPIO Configuration    
 850              		.loc 1 309 5 view .LVU295
 851              	.LBB9:
 309:Core/Src/tim.c ****     /**TIM3 GPIO Configuration    
 852              		.loc 1 309 5 view .LVU296
 853 016a 0894     		str	r4, [sp, #32]
 309:Core/Src/tim.c ****     /**TIM3 GPIO Configuration    
 854              		.loc 1 309 5 view .LVU297
 855 016c 1A6B     		ldr	r2, [r3, #48]
 856 016e 42F00202 		orr	r2, r2, #2
 857 0172 1A63     		str	r2, [r3, #48]
 309:Core/Src/tim.c ****     /**TIM3 GPIO Configuration    
 858              		.loc 1 309 5 view .LVU298
 859 0174 1B6B     		ldr	r3, [r3, #48]
ARM GAS  C:\Users\one\AppData\Local\Temp\ccK6ff3Z.s 			page 24


 860 0176 03F00203 		and	r3, r3, #2
 861 017a 0893     		str	r3, [sp, #32]
 309:Core/Src/tim.c ****     /**TIM3 GPIO Configuration    
 862              		.loc 1 309 5 view .LVU299
 863 017c 089B     		ldr	r3, [sp, #32]
 864              	.LBE9:
 309:Core/Src/tim.c ****     /**TIM3 GPIO Configuration    
 865              		.loc 1 309 5 view .LVU300
 314:Core/Src/tim.c ****     GPIO_InitStruct.Mode = GPIO_MODE_AF_PP;
 866              		.loc 1 314 5 view .LVU301
 314:Core/Src/tim.c ****     GPIO_InitStruct.Mode = GPIO_MODE_AF_PP;
 867              		.loc 1 314 25 is_stmt 0 view .LVU302
 868 017e 8023     		movs	r3, #128
 869 0180 0B93     		str	r3, [sp, #44]
 315:Core/Src/tim.c ****     GPIO_InitStruct.Pull = GPIO_PULLUP;
 870              		.loc 1 315 5 is_stmt 1 view .LVU303
 315:Core/Src/tim.c ****     GPIO_InitStruct.Pull = GPIO_PULLUP;
 871              		.loc 1 315 26 is_stmt 0 view .LVU304
 872 0182 0225     		movs	r5, #2
 873 0184 0C95     		str	r5, [sp, #48]
 316:Core/Src/tim.c ****     GPIO_InitStruct.Speed = GPIO_SPEED_FREQ_LOW;
 874              		.loc 1 316 5 is_stmt 1 view .LVU305
 316:Core/Src/tim.c ****     GPIO_InitStruct.Speed = GPIO_SPEED_FREQ_LOW;
 875              		.loc 1 316 26 is_stmt 0 view .LVU306
 876 0186 0126     		movs	r6, #1
 877 0188 0D96     		str	r6, [sp, #52]
 317:Core/Src/tim.c ****     GPIO_InitStruct.Alternate = GPIO_AF2_TIM3;
 878              		.loc 1 317 5 is_stmt 1 view .LVU307
 317:Core/Src/tim.c ****     GPIO_InitStruct.Alternate = GPIO_AF2_TIM3;
 879              		.loc 1 317 27 is_stmt 0 view .LVU308
 880 018a 0E94     		str	r4, [sp, #56]
 318:Core/Src/tim.c ****     HAL_GPIO_Init(GPIOA, &GPIO_InitStruct);
 881              		.loc 1 318 5 is_stmt 1 view .LVU309
 318:Core/Src/tim.c ****     HAL_GPIO_Init(GPIOA, &GPIO_InitStruct);
 882              		.loc 1 318 31 is_stmt 0 view .LVU310
 883 018c 0F95     		str	r5, [sp, #60]
 319:Core/Src/tim.c **** 
 884              		.loc 1 319 5 is_stmt 1 view .LVU311
 885 018e 0BA9     		add	r1, sp, #44
 886 0190 2548     		ldr	r0, .L43+20
 887              	.LVL36:
 319:Core/Src/tim.c **** 
 888              		.loc 1 319 5 is_stmt 0 view .LVU312
 889 0192 FFF7FEFF 		bl	HAL_GPIO_Init
 890              	.LVL37:
 321:Core/Src/tim.c ****     GPIO_InitStruct.Mode = GPIO_MODE_AF_PP;
 891              		.loc 1 321 5 is_stmt 1 view .LVU313
 321:Core/Src/tim.c ****     GPIO_InitStruct.Mode = GPIO_MODE_AF_PP;
 892              		.loc 1 321 25 is_stmt 0 view .LVU314
 893 0196 1023     		movs	r3, #16
 894 0198 0B93     		str	r3, [sp, #44]
 322:Core/Src/tim.c ****     GPIO_InitStruct.Pull = GPIO_PULLUP;
 895              		.loc 1 322 5 is_stmt 1 view .LVU315
 322:Core/Src/tim.c ****     GPIO_InitStruct.Pull = GPIO_PULLUP;
 896              		.loc 1 322 26 is_stmt 0 view .LVU316
 897 019a 0C95     		str	r5, [sp, #48]
 323:Core/Src/tim.c ****     GPIO_InitStruct.Speed = GPIO_SPEED_FREQ_LOW;
ARM GAS  C:\Users\one\AppData\Local\Temp\ccK6ff3Z.s 			page 25


 898              		.loc 1 323 5 is_stmt 1 view .LVU317
 323:Core/Src/tim.c ****     GPIO_InitStruct.Speed = GPIO_SPEED_FREQ_LOW;
 899              		.loc 1 323 26 is_stmt 0 view .LVU318
 900 019c 0D96     		str	r6, [sp, #52]
 324:Core/Src/tim.c ****     GPIO_InitStruct.Alternate = GPIO_AF2_TIM3;
 901              		.loc 1 324 5 is_stmt 1 view .LVU319
 324:Core/Src/tim.c ****     GPIO_InitStruct.Alternate = GPIO_AF2_TIM3;
 902              		.loc 1 324 27 is_stmt 0 view .LVU320
 903 019e 0E94     		str	r4, [sp, #56]
 325:Core/Src/tim.c ****     HAL_GPIO_Init(GPIOB, &GPIO_InitStruct);
 904              		.loc 1 325 5 is_stmt 1 view .LVU321
 325:Core/Src/tim.c ****     HAL_GPIO_Init(GPIOB, &GPIO_InitStruct);
 905              		.loc 1 325 31 is_stmt 0 view .LVU322
 906 01a0 0F95     		str	r5, [sp, #60]
 326:Core/Src/tim.c **** 
 907              		.loc 1 326 5 is_stmt 1 view .LVU323
 908 01a2 0BA9     		add	r1, sp, #44
 909 01a4 2148     		ldr	r0, .L43+24
 910 01a6 FFF7FEFF 		bl	HAL_GPIO_Init
 911              	.LVL38:
 329:Core/Src/tim.c ****     HAL_NVIC_EnableIRQ(TIM3_IRQn);
 912              		.loc 1 329 5 view .LVU324
 913 01aa 2246     		mov	r2, r4
 914 01ac 2146     		mov	r1, r4
 915 01ae 1D20     		movs	r0, #29
 916 01b0 FFF7FEFF 		bl	HAL_NVIC_SetPriority
 917              	.LVL39:
 330:Core/Src/tim.c ****   /* USER CODE BEGIN TIM3_MspInit 1 */
 918              		.loc 1 330 5 view .LVU325
 919 01b4 1D20     		movs	r0, #29
 920 01b6 FFF7FEFF 		bl	HAL_NVIC_EnableIRQ
 921              	.LVL40:
 922 01ba 38E7     		b	.L33
 923              	.LVL41:
 924              	.L42:
 341:Core/Src/tim.c ****   
 925              		.loc 1 341 5 view .LVU326
 926              	.LBB10:
 341:Core/Src/tim.c ****   
 927              		.loc 1 341 5 view .LVU327
 928 01bc 0024     		movs	r4, #0
 929 01be 0994     		str	r4, [sp, #36]
 341:Core/Src/tim.c ****   
 930              		.loc 1 341 5 view .LVU328
 931 01c0 174B     		ldr	r3, .L43+12
 932 01c2 1A6C     		ldr	r2, [r3, #64]
 933 01c4 42F00402 		orr	r2, r2, #4
 934 01c8 1A64     		str	r2, [r3, #64]
 341:Core/Src/tim.c ****   
 935              		.loc 1 341 5 view .LVU329
 936 01ca 1A6C     		ldr	r2, [r3, #64]
 937 01cc 02F00402 		and	r2, r2, #4
 938 01d0 0992     		str	r2, [sp, #36]
 341:Core/Src/tim.c ****   
 939              		.loc 1 341 5 view .LVU330
 940 01d2 099A     		ldr	r2, [sp, #36]
 941              	.LBE10:
ARM GAS  C:\Users\one\AppData\Local\Temp\ccK6ff3Z.s 			page 26


 341:Core/Src/tim.c ****   
 942              		.loc 1 341 5 view .LVU331
 343:Core/Src/tim.c ****     /**TIM4 GPIO Configuration    
 943              		.loc 1 343 5 view .LVU332
 944              	.LBB11:
 343:Core/Src/tim.c ****     /**TIM4 GPIO Configuration    
 945              		.loc 1 343 5 view .LVU333
 946 01d4 0A94     		str	r4, [sp, #40]
 343:Core/Src/tim.c ****     /**TIM4 GPIO Configuration    
 947              		.loc 1 343 5 view .LVU334
 948 01d6 1A6B     		ldr	r2, [r3, #48]
 949 01d8 42F00202 		orr	r2, r2, #2
 950 01dc 1A63     		str	r2, [r3, #48]
 343:Core/Src/tim.c ****     /**TIM4 GPIO Configuration    
 951              		.loc 1 343 5 view .LVU335
 952 01de 1B6B     		ldr	r3, [r3, #48]
 953 01e0 03F00203 		and	r3, r3, #2
 954 01e4 0A93     		str	r3, [sp, #40]
 343:Core/Src/tim.c ****     /**TIM4 GPIO Configuration    
 955              		.loc 1 343 5 view .LVU336
 956 01e6 0A9B     		ldr	r3, [sp, #40]
 957              	.LBE11:
 343:Core/Src/tim.c ****     /**TIM4 GPIO Configuration    
 958              		.loc 1 343 5 view .LVU337
 348:Core/Src/tim.c ****     GPIO_InitStruct.Mode = GPIO_MODE_AF_PP;
 959              		.loc 1 348 5 view .LVU338
 348:Core/Src/tim.c ****     GPIO_InitStruct.Mode = GPIO_MODE_AF_PP;
 960              		.loc 1 348 25 is_stmt 0 view .LVU339
 961 01e8 C023     		movs	r3, #192
 962 01ea 0B93     		str	r3, [sp, #44]
 349:Core/Src/tim.c ****     GPIO_InitStruct.Pull = GPIO_PULLUP;
 963              		.loc 1 349 5 is_stmt 1 view .LVU340
 349:Core/Src/tim.c ****     GPIO_InitStruct.Pull = GPIO_PULLUP;
 964              		.loc 1 349 26 is_stmt 0 view .LVU341
 965 01ec 0223     		movs	r3, #2
 966 01ee 0C93     		str	r3, [sp, #48]
 350:Core/Src/tim.c ****     GPIO_InitStruct.Speed = GPIO_SPEED_FREQ_LOW;
 967              		.loc 1 350 5 is_stmt 1 view .LVU342
 350:Core/Src/tim.c ****     GPIO_InitStruct.Speed = GPIO_SPEED_FREQ_LOW;
 968              		.loc 1 350 26 is_stmt 0 view .LVU343
 969 01f0 0122     		movs	r2, #1
 970 01f2 0D92     		str	r2, [sp, #52]
 351:Core/Src/tim.c ****     GPIO_InitStruct.Alternate = GPIO_AF2_TIM4;
 971              		.loc 1 351 5 is_stmt 1 view .LVU344
 351:Core/Src/tim.c ****     GPIO_InitStruct.Alternate = GPIO_AF2_TIM4;
 972              		.loc 1 351 27 is_stmt 0 view .LVU345
 973 01f4 0E94     		str	r4, [sp, #56]
 352:Core/Src/tim.c ****     HAL_GPIO_Init(GPIOB, &GPIO_InitStruct);
 974              		.loc 1 352 5 is_stmt 1 view .LVU346
 352:Core/Src/tim.c ****     HAL_GPIO_Init(GPIOB, &GPIO_InitStruct);
 975              		.loc 1 352 31 is_stmt 0 view .LVU347
 976 01f6 0F93     		str	r3, [sp, #60]
 353:Core/Src/tim.c **** 
 977              		.loc 1 353 5 is_stmt 1 view .LVU348
 978 01f8 0BA9     		add	r1, sp, #44
 979 01fa 0C48     		ldr	r0, .L43+24
 980              	.LVL42:
ARM GAS  C:\Users\one\AppData\Local\Temp\ccK6ff3Z.s 			page 27


 353:Core/Src/tim.c **** 
 981              		.loc 1 353 5 is_stmt 0 view .LVU349
 982 01fc FFF7FEFF 		bl	HAL_GPIO_Init
 983              	.LVL43:
 356:Core/Src/tim.c ****     HAL_NVIC_EnableIRQ(TIM4_IRQn);
 984              		.loc 1 356 5 is_stmt 1 view .LVU350
 985 0200 2246     		mov	r2, r4
 986 0202 2146     		mov	r1, r4
 987 0204 1E20     		movs	r0, #30
 988 0206 FFF7FEFF 		bl	HAL_NVIC_SetPriority
 989              	.LVL44:
 357:Core/Src/tim.c ****   /* USER CODE BEGIN TIM4_MspInit 1 */
 990              		.loc 1 357 5 view .LVU351
 991 020a 1E20     		movs	r0, #30
 992 020c FFF7FEFF 		bl	HAL_NVIC_EnableIRQ
 993              	.LVL45:
 994              		.loc 1 362 1 is_stmt 0 view .LVU352
 995 0210 0DE7     		b	.L33
 996              	.L44:
 997 0212 00BF     		.align	2
 998              	.L43:
 999 0214 00000140 		.word	1073807360
 1000 0218 00040040 		.word	1073742848
 1001 021c 00080040 		.word	1073743872
 1002 0220 00380240 		.word	1073887232
 1003 0224 00100240 		.word	1073876992
 1004 0228 00000240 		.word	1073872896
 1005 022c 00040240 		.word	1073873920
 1006              		.cfi_endproc
 1007              	.LFE138:
 1009              		.section	.text.HAL_TIM_PWM_MspInit,"ax",%progbits
 1010              		.align	1
 1011              		.global	HAL_TIM_PWM_MspInit
 1012              		.syntax unified
 1013              		.thumb
 1014              		.thumb_func
 1015              		.fpu fpv4-sp-d16
 1017              	HAL_TIM_PWM_MspInit:
 1018              	.LVL46:
 1019              	.LFB139:
 363:Core/Src/tim.c **** 
 364:Core/Src/tim.c **** void HAL_TIM_PWM_MspInit(TIM_HandleTypeDef* tim_pwmHandle)
 365:Core/Src/tim.c **** {
 1020              		.loc 1 365 1 is_stmt 1 view -0
 1021              		.cfi_startproc
 1022              		@ args = 0, pretend = 0, frame = 8
 1023              		@ frame_needed = 0, uses_anonymous_args = 0
 366:Core/Src/tim.c **** 
 367:Core/Src/tim.c ****   if(tim_pwmHandle->Instance==TIM8)
 1024              		.loc 1 367 3 view .LVU354
 1025              		.loc 1 367 19 is_stmt 0 view .LVU355
 1026 0000 0268     		ldr	r2, [r0]
 1027              		.loc 1 367 5 view .LVU356
 1028 0002 0E4B     		ldr	r3, .L52
 1029 0004 9A42     		cmp	r2, r3
 1030 0006 00D0     		beq	.L51
 1031 0008 7047     		bx	lr
ARM GAS  C:\Users\one\AppData\Local\Temp\ccK6ff3Z.s 			page 28


 1032              	.L51:
 365:Core/Src/tim.c **** 
 1033              		.loc 1 365 1 view .LVU357
 1034 000a 00B5     		push	{lr}
 1035              	.LCFI20:
 1036              		.cfi_def_cfa_offset 4
 1037              		.cfi_offset 14, -4
 1038 000c 83B0     		sub	sp, sp, #12
 1039              	.LCFI21:
 1040              		.cfi_def_cfa_offset 16
 368:Core/Src/tim.c ****   {
 369:Core/Src/tim.c ****   /* USER CODE BEGIN TIM8_MspInit 0 */
 370:Core/Src/tim.c **** 
 371:Core/Src/tim.c ****   /* USER CODE END TIM8_MspInit 0 */
 372:Core/Src/tim.c ****     /* TIM8 clock enable */
 373:Core/Src/tim.c ****     __HAL_RCC_TIM8_CLK_ENABLE();
 1041              		.loc 1 373 5 is_stmt 1 view .LVU358
 1042              	.LBB12:
 1043              		.loc 1 373 5 view .LVU359
 1044 000e 0021     		movs	r1, #0
 1045 0010 0191     		str	r1, [sp, #4]
 1046              		.loc 1 373 5 view .LVU360
 1047 0012 03F59A33 		add	r3, r3, #78848
 1048 0016 5A6C     		ldr	r2, [r3, #68]
 1049 0018 42F00202 		orr	r2, r2, #2
 1050 001c 5A64     		str	r2, [r3, #68]
 1051              		.loc 1 373 5 view .LVU361
 1052 001e 5B6C     		ldr	r3, [r3, #68]
 1053 0020 03F00203 		and	r3, r3, #2
 1054 0024 0193     		str	r3, [sp, #4]
 1055              		.loc 1 373 5 view .LVU362
 1056 0026 019B     		ldr	r3, [sp, #4]
 1057              	.LBE12:
 1058              		.loc 1 373 5 view .LVU363
 374:Core/Src/tim.c **** 
 375:Core/Src/tim.c ****     /* TIM8 interrupt Init */
 376:Core/Src/tim.c ****     HAL_NVIC_SetPriority(TIM8_UP_TIM13_IRQn, 0, 0);
 1059              		.loc 1 376 5 view .LVU364
 1060 0028 0A46     		mov	r2, r1
 1061 002a 2C20     		movs	r0, #44
 1062              	.LVL47:
 1063              		.loc 1 376 5 is_stmt 0 view .LVU365
 1064 002c FFF7FEFF 		bl	HAL_NVIC_SetPriority
 1065              	.LVL48:
 377:Core/Src/tim.c ****     HAL_NVIC_EnableIRQ(TIM8_UP_TIM13_IRQn);
 1066              		.loc 1 377 5 is_stmt 1 view .LVU366
 1067 0030 2C20     		movs	r0, #44
 1068 0032 FFF7FEFF 		bl	HAL_NVIC_EnableIRQ
 1069              	.LVL49:
 378:Core/Src/tim.c ****   /* USER CODE BEGIN TIM8_MspInit 1 */
 379:Core/Src/tim.c **** 
 380:Core/Src/tim.c ****   /* USER CODE END TIM8_MspInit 1 */
 381:Core/Src/tim.c ****   }
 382:Core/Src/tim.c **** }
 1070              		.loc 1 382 1 is_stmt 0 view .LVU367
 1071 0036 03B0     		add	sp, sp, #12
 1072              	.LCFI22:
ARM GAS  C:\Users\one\AppData\Local\Temp\ccK6ff3Z.s 			page 29


 1073              		.cfi_def_cfa_offset 4
 1074              		@ sp needed
 1075 0038 5DF804FB 		ldr	pc, [sp], #4
 1076              	.L53:
 1077              		.align	2
 1078              	.L52:
 1079 003c 00040140 		.word	1073808384
 1080              		.cfi_endproc
 1081              	.LFE139:
 1083              		.section	.text.HAL_TIM_MspPostInit,"ax",%progbits
 1084              		.align	1
 1085              		.global	HAL_TIM_MspPostInit
 1086              		.syntax unified
 1087              		.thumb
 1088              		.thumb_func
 1089              		.fpu fpv4-sp-d16
 1091              	HAL_TIM_MspPostInit:
 1092              	.LVL50:
 1093              	.LFB140:
 383:Core/Src/tim.c **** void HAL_TIM_MspPostInit(TIM_HandleTypeDef* timHandle)
 384:Core/Src/tim.c **** {
 1094              		.loc 1 384 1 is_stmt 1 view -0
 1095              		.cfi_startproc
 1096              		@ args = 0, pretend = 0, frame = 24
 1097              		@ frame_needed = 0, uses_anonymous_args = 0
 1098              		.loc 1 384 1 is_stmt 0 view .LVU369
 1099 0000 00B5     		push	{lr}
 1100              	.LCFI23:
 1101              		.cfi_def_cfa_offset 4
 1102              		.cfi_offset 14, -4
 1103 0002 87B0     		sub	sp, sp, #28
 1104              	.LCFI24:
 1105              		.cfi_def_cfa_offset 32
 385:Core/Src/tim.c **** 
 386:Core/Src/tim.c ****   GPIO_InitTypeDef GPIO_InitStruct = {0};
 1106              		.loc 1 386 3 is_stmt 1 view .LVU370
 1107              		.loc 1 386 20 is_stmt 0 view .LVU371
 1108 0004 0023     		movs	r3, #0
 1109 0006 0193     		str	r3, [sp, #4]
 1110 0008 0293     		str	r3, [sp, #8]
 1111 000a 0393     		str	r3, [sp, #12]
 1112 000c 0493     		str	r3, [sp, #16]
 1113 000e 0593     		str	r3, [sp, #20]
 387:Core/Src/tim.c ****   if(timHandle->Instance==TIM8)
 1114              		.loc 1 387 3 is_stmt 1 view .LVU372
 1115              		.loc 1 387 15 is_stmt 0 view .LVU373
 1116 0010 0268     		ldr	r2, [r0]
 1117              		.loc 1 387 5 view .LVU374
 1118 0012 03F18043 		add	r3, r3, #1073741824
 1119 0016 03F58233 		add	r3, r3, #66560
 1120 001a 9A42     		cmp	r2, r3
 1121 001c 02D0     		beq	.L57
 1122              	.LVL51:
 1123              	.L54:
 388:Core/Src/tim.c ****   {
 389:Core/Src/tim.c ****   /* USER CODE BEGIN TIM8_MspPostInit 0 */
 390:Core/Src/tim.c **** 
ARM GAS  C:\Users\one\AppData\Local\Temp\ccK6ff3Z.s 			page 30


 391:Core/Src/tim.c ****   /* USER CODE END TIM8_MspPostInit 0 */
 392:Core/Src/tim.c ****   
 393:Core/Src/tim.c ****     __HAL_RCC_GPIOC_CLK_ENABLE();
 394:Core/Src/tim.c ****     /**TIM8 GPIO Configuration    
 395:Core/Src/tim.c ****     PC6     ------> TIM8_CH1
 396:Core/Src/tim.c ****     PC7     ------> TIM8_CH2
 397:Core/Src/tim.c ****     PC8     ------> TIM8_CH3
 398:Core/Src/tim.c ****     PC9     ------> TIM8_CH4 
 399:Core/Src/tim.c ****     */
 400:Core/Src/tim.c ****     GPIO_InitStruct.Pin = GPIO_PIN_6|GPIO_PIN_7|GPIO_PIN_8|GPIO_PIN_9;
 401:Core/Src/tim.c ****     GPIO_InitStruct.Mode = GPIO_MODE_AF_PP;
 402:Core/Src/tim.c ****     GPIO_InitStruct.Pull = GPIO_NOPULL;
 403:Core/Src/tim.c ****     GPIO_InitStruct.Speed = GPIO_SPEED_FREQ_LOW;
 404:Core/Src/tim.c ****     GPIO_InitStruct.Alternate = GPIO_AF3_TIM8;
 405:Core/Src/tim.c ****     HAL_GPIO_Init(GPIOC, &GPIO_InitStruct);
 406:Core/Src/tim.c **** 
 407:Core/Src/tim.c ****   /* USER CODE BEGIN TIM8_MspPostInit 1 */
 408:Core/Src/tim.c **** 
 409:Core/Src/tim.c ****   /* USER CODE END TIM8_MspPostInit 1 */
 410:Core/Src/tim.c ****   }
 411:Core/Src/tim.c **** 
 412:Core/Src/tim.c **** }
 1124              		.loc 1 412 1 view .LVU375
 1125 001e 07B0     		add	sp, sp, #28
 1126              	.LCFI25:
 1127              		.cfi_remember_state
 1128              		.cfi_def_cfa_offset 4
 1129              		@ sp needed
 1130 0020 5DF804FB 		ldr	pc, [sp], #4
 1131              	.LVL52:
 1132              	.L57:
 1133              	.LCFI26:
 1134              		.cfi_restore_state
 393:Core/Src/tim.c ****     /**TIM8 GPIO Configuration    
 1135              		.loc 1 393 5 is_stmt 1 view .LVU376
 1136              	.LBB13:
 393:Core/Src/tim.c ****     /**TIM8 GPIO Configuration    
 1137              		.loc 1 393 5 view .LVU377
 1138 0024 0023     		movs	r3, #0
 1139 0026 0093     		str	r3, [sp]
 393:Core/Src/tim.c ****     /**TIM8 GPIO Configuration    
 1140              		.loc 1 393 5 view .LVU378
 1141 0028 0B4A     		ldr	r2, .L58
 1142 002a 116B     		ldr	r1, [r2, #48]
 1143 002c 41F00401 		orr	r1, r1, #4
 1144 0030 1163     		str	r1, [r2, #48]
 393:Core/Src/tim.c ****     /**TIM8 GPIO Configuration    
 1145              		.loc 1 393 5 view .LVU379
 1146 0032 126B     		ldr	r2, [r2, #48]
 1147 0034 02F00402 		and	r2, r2, #4
 1148 0038 0092     		str	r2, [sp]
 393:Core/Src/tim.c ****     /**TIM8 GPIO Configuration    
 1149              		.loc 1 393 5 view .LVU380
 1150 003a 009A     		ldr	r2, [sp]
 1151              	.LBE13:
 393:Core/Src/tim.c ****     /**TIM8 GPIO Configuration    
 1152              		.loc 1 393 5 view .LVU381
ARM GAS  C:\Users\one\AppData\Local\Temp\ccK6ff3Z.s 			page 31


 400:Core/Src/tim.c ****     GPIO_InitStruct.Mode = GPIO_MODE_AF_PP;
 1153              		.loc 1 400 5 view .LVU382
 400:Core/Src/tim.c ****     GPIO_InitStruct.Mode = GPIO_MODE_AF_PP;
 1154              		.loc 1 400 25 is_stmt 0 view .LVU383
 1155 003c 4FF47072 		mov	r2, #960
 1156 0040 0192     		str	r2, [sp, #4]
 401:Core/Src/tim.c ****     GPIO_InitStruct.Pull = GPIO_NOPULL;
 1157              		.loc 1 401 5 is_stmt 1 view .LVU384
 401:Core/Src/tim.c ****     GPIO_InitStruct.Pull = GPIO_NOPULL;
 1158              		.loc 1 401 26 is_stmt 0 view .LVU385
 1159 0042 0222     		movs	r2, #2
 1160 0044 0292     		str	r2, [sp, #8]
 402:Core/Src/tim.c ****     GPIO_InitStruct.Speed = GPIO_SPEED_FREQ_LOW;
 1161              		.loc 1 402 5 is_stmt 1 view .LVU386
 402:Core/Src/tim.c ****     GPIO_InitStruct.Speed = GPIO_SPEED_FREQ_LOW;
 1162              		.loc 1 402 26 is_stmt 0 view .LVU387
 1163 0046 0393     		str	r3, [sp, #12]
 403:Core/Src/tim.c ****     GPIO_InitStruct.Alternate = GPIO_AF3_TIM8;
 1164              		.loc 1 403 5 is_stmt 1 view .LVU388
 403:Core/Src/tim.c ****     GPIO_InitStruct.Alternate = GPIO_AF3_TIM8;
 1165              		.loc 1 403 27 is_stmt 0 view .LVU389
 1166 0048 0493     		str	r3, [sp, #16]
 404:Core/Src/tim.c ****     HAL_GPIO_Init(GPIOC, &GPIO_InitStruct);
 1167              		.loc 1 404 5 is_stmt 1 view .LVU390
 404:Core/Src/tim.c ****     HAL_GPIO_Init(GPIOC, &GPIO_InitStruct);
 1168              		.loc 1 404 31 is_stmt 0 view .LVU391
 1169 004a 0323     		movs	r3, #3
 1170 004c 0593     		str	r3, [sp, #20]
 405:Core/Src/tim.c **** 
 1171              		.loc 1 405 5 is_stmt 1 view .LVU392
 1172 004e 01A9     		add	r1, sp, #4
 1173 0050 0248     		ldr	r0, .L58+4
 1174              	.LVL53:
 405:Core/Src/tim.c **** 
 1175              		.loc 1 405 5 is_stmt 0 view .LVU393
 1176 0052 FFF7FEFF 		bl	HAL_GPIO_Init
 1177              	.LVL54:
 1178              		.loc 1 412 1 view .LVU394
 1179 0056 E2E7     		b	.L54
 1180              	.L59:
 1181              		.align	2
 1182              	.L58:
 1183 0058 00380240 		.word	1073887232
 1184 005c 00080240 		.word	1073874944
 1185              		.cfi_endproc
 1186              	.LFE140:
 1188              		.section	.text.MX_TIM8_Init,"ax",%progbits
 1189              		.align	1
 1190              		.global	MX_TIM8_Init
 1191              		.syntax unified
 1192              		.thumb
 1193              		.thumb_func
 1194              		.fpu fpv4-sp-d16
 1196              	MX_TIM8_Init:
 1197              	.LFB137:
 168:Core/Src/tim.c ****   TIM_MasterConfigTypeDef sMasterConfig = {0};
 1198              		.loc 1 168 1 is_stmt 1 view -0
ARM GAS  C:\Users\one\AppData\Local\Temp\ccK6ff3Z.s 			page 32


 1199              		.cfi_startproc
 1200              		@ args = 0, pretend = 0, frame = 72
 1201              		@ frame_needed = 0, uses_anonymous_args = 0
 1202 0000 30B5     		push	{r4, r5, lr}
 1203              	.LCFI27:
 1204              		.cfi_def_cfa_offset 12
 1205              		.cfi_offset 4, -12
 1206              		.cfi_offset 5, -8
 1207              		.cfi_offset 14, -4
 1208 0002 93B0     		sub	sp, sp, #76
 1209              	.LCFI28:
 1210              		.cfi_def_cfa_offset 88
 169:Core/Src/tim.c ****   TIM_OC_InitTypeDef sConfigOC = {0};
 1211              		.loc 1 169 3 view .LVU396
 169:Core/Src/tim.c ****   TIM_OC_InitTypeDef sConfigOC = {0};
 1212              		.loc 1 169 27 is_stmt 0 view .LVU397
 1213 0004 0024     		movs	r4, #0
 1214 0006 1094     		str	r4, [sp, #64]
 1215 0008 1194     		str	r4, [sp, #68]
 170:Core/Src/tim.c ****   TIM_BreakDeadTimeConfigTypeDef sBreakDeadTimeConfig = {0};
 1216              		.loc 1 170 3 is_stmt 1 view .LVU398
 170:Core/Src/tim.c ****   TIM_BreakDeadTimeConfigTypeDef sBreakDeadTimeConfig = {0};
 1217              		.loc 1 170 22 is_stmt 0 view .LVU399
 1218 000a 0994     		str	r4, [sp, #36]
 1219 000c 0A94     		str	r4, [sp, #40]
 1220 000e 0B94     		str	r4, [sp, #44]
 1221 0010 0C94     		str	r4, [sp, #48]
 1222 0012 0D94     		str	r4, [sp, #52]
 1223 0014 0E94     		str	r4, [sp, #56]
 1224 0016 0F94     		str	r4, [sp, #60]
 171:Core/Src/tim.c **** 
 1225              		.loc 1 171 3 is_stmt 1 view .LVU400
 171:Core/Src/tim.c **** 
 1226              		.loc 1 171 34 is_stmt 0 view .LVU401
 1227 0018 2025     		movs	r5, #32
 1228 001a 2A46     		mov	r2, r5
 1229 001c 2146     		mov	r1, r4
 1230 001e 01A8     		add	r0, sp, #4
 1231 0020 FFF7FEFF 		bl	memset
 1232              	.LVL55:
 173:Core/Src/tim.c ****   htim8.Init.Prescaler = 0;
 1233              		.loc 1 173 3 is_stmt 1 view .LVU402
 173:Core/Src/tim.c ****   htim8.Init.Prescaler = 0;
 1234              		.loc 1 173 18 is_stmt 0 view .LVU403
 1235 0024 3048     		ldr	r0, .L76
 1236 0026 314B     		ldr	r3, .L76+4
 1237 0028 0360     		str	r3, [r0]
 174:Core/Src/tim.c ****   htim8.Init.CounterMode = TIM_COUNTERMODE_CENTERALIGNED1;
 1238              		.loc 1 174 3 is_stmt 1 view .LVU404
 174:Core/Src/tim.c ****   htim8.Init.CounterMode = TIM_COUNTERMODE_CENTERALIGNED1;
 1239              		.loc 1 174 24 is_stmt 0 view .LVU405
 1240 002a 4460     		str	r4, [r0, #4]
 175:Core/Src/tim.c ****   htim8.Init.Period = 10499;
 1241              		.loc 1 175 3 is_stmt 1 view .LVU406
 175:Core/Src/tim.c ****   htim8.Init.Period = 10499;
 1242              		.loc 1 175 26 is_stmt 0 view .LVU407
 1243 002c 8560     		str	r5, [r0, #8]
ARM GAS  C:\Users\one\AppData\Local\Temp\ccK6ff3Z.s 			page 33


 176:Core/Src/tim.c ****   htim8.Init.ClockDivision = TIM_CLOCKDIVISION_DIV1;
 1244              		.loc 1 176 3 is_stmt 1 view .LVU408
 176:Core/Src/tim.c ****   htim8.Init.ClockDivision = TIM_CLOCKDIVISION_DIV1;
 1245              		.loc 1 176 21 is_stmt 0 view .LVU409
 1246 002e 42F60313 		movw	r3, #10499
 1247 0032 C360     		str	r3, [r0, #12]
 177:Core/Src/tim.c ****   htim8.Init.RepetitionCounter = 0;
 1248              		.loc 1 177 3 is_stmt 1 view .LVU410
 177:Core/Src/tim.c ****   htim8.Init.RepetitionCounter = 0;
 1249              		.loc 1 177 28 is_stmt 0 view .LVU411
 1250 0034 0461     		str	r4, [r0, #16]
 178:Core/Src/tim.c ****   htim8.Init.AutoReloadPreload = TIM_AUTORELOAD_PRELOAD_DISABLE;
 1251              		.loc 1 178 3 is_stmt 1 view .LVU412
 178:Core/Src/tim.c ****   htim8.Init.AutoReloadPreload = TIM_AUTORELOAD_PRELOAD_DISABLE;
 1252              		.loc 1 178 32 is_stmt 0 view .LVU413
 1253 0036 4461     		str	r4, [r0, #20]
 179:Core/Src/tim.c ****   if (HAL_TIM_PWM_Init(&htim8) != HAL_OK)
 1254              		.loc 1 179 3 is_stmt 1 view .LVU414
 179:Core/Src/tim.c ****   if (HAL_TIM_PWM_Init(&htim8) != HAL_OK)
 1255              		.loc 1 179 32 is_stmt 0 view .LVU415
 1256 0038 8461     		str	r4, [r0, #24]
 180:Core/Src/tim.c ****   {
 1257              		.loc 1 180 3 is_stmt 1 view .LVU416
 180:Core/Src/tim.c ****   {
 1258              		.loc 1 180 7 is_stmt 0 view .LVU417
 1259 003a FFF7FEFF 		bl	HAL_TIM_PWM_Init
 1260              	.LVL56:
 180:Core/Src/tim.c ****   {
 1261              		.loc 1 180 6 view .LVU418
 1262 003e 0028     		cmp	r0, #0
 1263 0040 3CD1     		bne	.L69
 1264              	.L61:
 184:Core/Src/tim.c ****   sMasterConfig.MasterSlaveMode = TIM_MASTERSLAVEMODE_DISABLE;
 1265              		.loc 1 184 3 is_stmt 1 view .LVU419
 184:Core/Src/tim.c ****   sMasterConfig.MasterSlaveMode = TIM_MASTERSLAVEMODE_DISABLE;
 1266              		.loc 1 184 37 is_stmt 0 view .LVU420
 1267 0042 0023     		movs	r3, #0
 1268 0044 1093     		str	r3, [sp, #64]
 185:Core/Src/tim.c ****   if (HAL_TIMEx_MasterConfigSynchronization(&htim8, &sMasterConfig) != HAL_OK)
 1269              		.loc 1 185 3 is_stmt 1 view .LVU421
 185:Core/Src/tim.c ****   if (HAL_TIMEx_MasterConfigSynchronization(&htim8, &sMasterConfig) != HAL_OK)
 1270              		.loc 1 185 33 is_stmt 0 view .LVU422
 1271 0046 1193     		str	r3, [sp, #68]
 186:Core/Src/tim.c ****   {
 1272              		.loc 1 186 3 is_stmt 1 view .LVU423
 186:Core/Src/tim.c ****   {
 1273              		.loc 1 186 7 is_stmt 0 view .LVU424
 1274 0048 10A9     		add	r1, sp, #64
 1275 004a 2748     		ldr	r0, .L76
 1276 004c FFF7FEFF 		bl	HAL_TIMEx_MasterConfigSynchronization
 1277              	.LVL57:
 186:Core/Src/tim.c ****   {
 1278              		.loc 1 186 6 view .LVU425
 1279 0050 0028     		cmp	r0, #0
 1280 0052 36D1     		bne	.L70
 1281              	.L62:
 190:Core/Src/tim.c ****   sConfigOC.Pulse = 0;
ARM GAS  C:\Users\one\AppData\Local\Temp\ccK6ff3Z.s 			page 34


 1282              		.loc 1 190 3 is_stmt 1 view .LVU426
 190:Core/Src/tim.c ****   sConfigOC.Pulse = 0;
 1283              		.loc 1 190 20 is_stmt 0 view .LVU427
 1284 0054 6023     		movs	r3, #96
 1285 0056 0993     		str	r3, [sp, #36]
 191:Core/Src/tim.c ****   sConfigOC.OCPolarity = TIM_OCPOLARITY_HIGH;
 1286              		.loc 1 191 3 is_stmt 1 view .LVU428
 191:Core/Src/tim.c ****   sConfigOC.OCPolarity = TIM_OCPOLARITY_HIGH;
 1287              		.loc 1 191 19 is_stmt 0 view .LVU429
 1288 0058 0022     		movs	r2, #0
 1289 005a 0A92     		str	r2, [sp, #40]
 192:Core/Src/tim.c ****   sConfigOC.OCNPolarity = TIM_OCNPOLARITY_HIGH;
 1290              		.loc 1 192 3 is_stmt 1 view .LVU430
 192:Core/Src/tim.c ****   sConfigOC.OCNPolarity = TIM_OCNPOLARITY_HIGH;
 1291              		.loc 1 192 24 is_stmt 0 view .LVU431
 1292 005c 0B92     		str	r2, [sp, #44]
 193:Core/Src/tim.c ****   sConfigOC.OCFastMode = TIM_OCFAST_DISABLE;
 1293              		.loc 1 193 3 is_stmt 1 view .LVU432
 193:Core/Src/tim.c ****   sConfigOC.OCFastMode = TIM_OCFAST_DISABLE;
 1294              		.loc 1 193 25 is_stmt 0 view .LVU433
 1295 005e 0C92     		str	r2, [sp, #48]
 194:Core/Src/tim.c ****   sConfigOC.OCIdleState = TIM_OCIDLESTATE_RESET;
 1296              		.loc 1 194 3 is_stmt 1 view .LVU434
 194:Core/Src/tim.c ****   sConfigOC.OCIdleState = TIM_OCIDLESTATE_RESET;
 1297              		.loc 1 194 24 is_stmt 0 view .LVU435
 1298 0060 0D92     		str	r2, [sp, #52]
 195:Core/Src/tim.c ****   sConfigOC.OCNIdleState = TIM_OCNIDLESTATE_RESET;
 1299              		.loc 1 195 3 is_stmt 1 view .LVU436
 195:Core/Src/tim.c ****   sConfigOC.OCNIdleState = TIM_OCNIDLESTATE_RESET;
 1300              		.loc 1 195 25 is_stmt 0 view .LVU437
 1301 0062 0E92     		str	r2, [sp, #56]
 196:Core/Src/tim.c ****   if (HAL_TIM_PWM_ConfigChannel(&htim8, &sConfigOC, TIM_CHANNEL_1) != HAL_OK)
 1302              		.loc 1 196 3 is_stmt 1 view .LVU438
 196:Core/Src/tim.c ****   if (HAL_TIM_PWM_ConfigChannel(&htim8, &sConfigOC, TIM_CHANNEL_1) != HAL_OK)
 1303              		.loc 1 196 26 is_stmt 0 view .LVU439
 1304 0064 0F92     		str	r2, [sp, #60]
 197:Core/Src/tim.c ****   {
 1305              		.loc 1 197 3 is_stmt 1 view .LVU440
 197:Core/Src/tim.c ****   {
 1306              		.loc 1 197 7 is_stmt 0 view .LVU441
 1307 0066 09A9     		add	r1, sp, #36
 1308 0068 1F48     		ldr	r0, .L76
 1309 006a FFF7FEFF 		bl	HAL_TIM_PWM_ConfigChannel
 1310              	.LVL58:
 197:Core/Src/tim.c ****   {
 1311              		.loc 1 197 6 view .LVU442
 1312 006e 58BB     		cbnz	r0, .L71
 1313              	.L63:
 201:Core/Src/tim.c ****   {
 1314              		.loc 1 201 3 is_stmt 1 view .LVU443
 201:Core/Src/tim.c ****   {
 1315              		.loc 1 201 7 is_stmt 0 view .LVU444
 1316 0070 0422     		movs	r2, #4
 1317 0072 09A9     		add	r1, sp, #36
 1318 0074 1C48     		ldr	r0, .L76
 1319 0076 FFF7FEFF 		bl	HAL_TIM_PWM_ConfigChannel
 1320              	.LVL59:
ARM GAS  C:\Users\one\AppData\Local\Temp\ccK6ff3Z.s 			page 35


 201:Core/Src/tim.c ****   {
 1321              		.loc 1 201 6 view .LVU445
 1322 007a 40BB     		cbnz	r0, .L72
 1323              	.L64:
 205:Core/Src/tim.c ****   {
 1324              		.loc 1 205 3 is_stmt 1 view .LVU446
 205:Core/Src/tim.c ****   {
 1325              		.loc 1 205 7 is_stmt 0 view .LVU447
 1326 007c 0822     		movs	r2, #8
 1327 007e 09A9     		add	r1, sp, #36
 1328 0080 1948     		ldr	r0, .L76
 1329 0082 FFF7FEFF 		bl	HAL_TIM_PWM_ConfigChannel
 1330              	.LVL60:
 205:Core/Src/tim.c ****   {
 1331              		.loc 1 205 6 view .LVU448
 1332 0086 28BB     		cbnz	r0, .L73
 1333              	.L65:
 209:Core/Src/tim.c ****   {
 1334              		.loc 1 209 3 is_stmt 1 view .LVU449
 209:Core/Src/tim.c ****   {
 1335              		.loc 1 209 7 is_stmt 0 view .LVU450
 1336 0088 0C22     		movs	r2, #12
 1337 008a 09A9     		add	r1, sp, #36
 1338 008c 1648     		ldr	r0, .L76
 1339 008e FFF7FEFF 		bl	HAL_TIM_PWM_ConfigChannel
 1340              	.LVL61:
 209:Core/Src/tim.c ****   {
 1341              		.loc 1 209 6 view .LVU451
 1342 0092 10BB     		cbnz	r0, .L74
 1343              	.L66:
 213:Core/Src/tim.c ****   sBreakDeadTimeConfig.OffStateIDLEMode = TIM_OSSI_DISABLE;
 1344              		.loc 1 213 3 is_stmt 1 view .LVU452
 213:Core/Src/tim.c ****   sBreakDeadTimeConfig.OffStateIDLEMode = TIM_OSSI_DISABLE;
 1345              		.loc 1 213 40 is_stmt 0 view .LVU453
 1346 0094 0023     		movs	r3, #0
 1347 0096 0193     		str	r3, [sp, #4]
 214:Core/Src/tim.c ****   sBreakDeadTimeConfig.LockLevel = TIM_LOCKLEVEL_OFF;
 1348              		.loc 1 214 3 is_stmt 1 view .LVU454
 214:Core/Src/tim.c ****   sBreakDeadTimeConfig.LockLevel = TIM_LOCKLEVEL_OFF;
 1349              		.loc 1 214 41 is_stmt 0 view .LVU455
 1350 0098 0293     		str	r3, [sp, #8]
 215:Core/Src/tim.c ****   sBreakDeadTimeConfig.DeadTime = 0;
 1351              		.loc 1 215 3 is_stmt 1 view .LVU456
 215:Core/Src/tim.c ****   sBreakDeadTimeConfig.DeadTime = 0;
 1352              		.loc 1 215 34 is_stmt 0 view .LVU457
 1353 009a 0393     		str	r3, [sp, #12]
 216:Core/Src/tim.c ****   sBreakDeadTimeConfig.BreakState = TIM_BREAK_DISABLE;
 1354              		.loc 1 216 3 is_stmt 1 view .LVU458
 216:Core/Src/tim.c ****   sBreakDeadTimeConfig.BreakState = TIM_BREAK_DISABLE;
 1355              		.loc 1 216 33 is_stmt 0 view .LVU459
 1356 009c 0493     		str	r3, [sp, #16]
 217:Core/Src/tim.c ****   sBreakDeadTimeConfig.BreakPolarity = TIM_BREAKPOLARITY_HIGH;
 1357              		.loc 1 217 3 is_stmt 1 view .LVU460
 217:Core/Src/tim.c ****   sBreakDeadTimeConfig.BreakPolarity = TIM_BREAKPOLARITY_HIGH;
 1358              		.loc 1 217 35 is_stmt 0 view .LVU461
 1359 009e 0593     		str	r3, [sp, #20]
 218:Core/Src/tim.c ****   sBreakDeadTimeConfig.AutomaticOutput = TIM_AUTOMATICOUTPUT_DISABLE;
ARM GAS  C:\Users\one\AppData\Local\Temp\ccK6ff3Z.s 			page 36


 1360              		.loc 1 218 3 is_stmt 1 view .LVU462
 218:Core/Src/tim.c ****   sBreakDeadTimeConfig.AutomaticOutput = TIM_AUTOMATICOUTPUT_DISABLE;
 1361              		.loc 1 218 38 is_stmt 0 view .LVU463
 1362 00a0 4FF40052 		mov	r2, #8192
 1363 00a4 0692     		str	r2, [sp, #24]
 219:Core/Src/tim.c ****   if (HAL_TIMEx_ConfigBreakDeadTime(&htim8, &sBreakDeadTimeConfig) != HAL_OK)
 1364              		.loc 1 219 3 is_stmt 1 view .LVU464
 219:Core/Src/tim.c ****   if (HAL_TIMEx_ConfigBreakDeadTime(&htim8, &sBreakDeadTimeConfig) != HAL_OK)
 1365              		.loc 1 219 40 is_stmt 0 view .LVU465
 1366 00a6 0893     		str	r3, [sp, #32]
 220:Core/Src/tim.c ****   {
 1367              		.loc 1 220 3 is_stmt 1 view .LVU466
 220:Core/Src/tim.c ****   {
 1368              		.loc 1 220 7 is_stmt 0 view .LVU467
 1369 00a8 01A9     		add	r1, sp, #4
 1370 00aa 0F48     		ldr	r0, .L76
 1371 00ac FFF7FEFF 		bl	HAL_TIMEx_ConfigBreakDeadTime
 1372              	.LVL62:
 220:Core/Src/tim.c ****   {
 1373              		.loc 1 220 6 view .LVU468
 1374 00b0 B0B9     		cbnz	r0, .L75
 1375              	.L67:
 224:Core/Src/tim.c **** 
 1376              		.loc 1 224 3 is_stmt 1 view .LVU469
 1377 00b2 0D48     		ldr	r0, .L76
 1378 00b4 FFF7FEFF 		bl	HAL_TIM_MspPostInit
 1379              	.LVL63:
 226:Core/Src/tim.c **** 
 1380              		.loc 1 226 1 is_stmt 0 view .LVU470
 1381 00b8 13B0     		add	sp, sp, #76
 1382              	.LCFI29:
 1383              		.cfi_remember_state
 1384              		.cfi_def_cfa_offset 12
 1385              		@ sp needed
 1386 00ba 30BD     		pop	{r4, r5, pc}
 1387              	.L69:
 1388              	.LCFI30:
 1389              		.cfi_restore_state
 182:Core/Src/tim.c ****   }
 1390              		.loc 1 182 5 is_stmt 1 view .LVU471
 1391 00bc FFF7FEFF 		bl	Error_Handler
 1392              	.LVL64:
 1393 00c0 BFE7     		b	.L61
 1394              	.L70:
 188:Core/Src/tim.c ****   }
 1395              		.loc 1 188 5 view .LVU472
 1396 00c2 FFF7FEFF 		bl	Error_Handler
 1397              	.LVL65:
 1398 00c6 C5E7     		b	.L62
 1399              	.L71:
 199:Core/Src/tim.c ****   }
 1400              		.loc 1 199 5 view .LVU473
 1401 00c8 FFF7FEFF 		bl	Error_Handler
 1402              	.LVL66:
 1403 00cc D0E7     		b	.L63
 1404              	.L72:
 203:Core/Src/tim.c ****   }
ARM GAS  C:\Users\one\AppData\Local\Temp\ccK6ff3Z.s 			page 37


 1405              		.loc 1 203 5 view .LVU474
 1406 00ce FFF7FEFF 		bl	Error_Handler
 1407              	.LVL67:
 1408 00d2 D3E7     		b	.L64
 1409              	.L73:
 207:Core/Src/tim.c ****   }
 1410              		.loc 1 207 5 view .LVU475
 1411 00d4 FFF7FEFF 		bl	Error_Handler
 1412              	.LVL68:
 1413 00d8 D6E7     		b	.L65
 1414              	.L74:
 211:Core/Src/tim.c ****   }
 1415              		.loc 1 211 5 view .LVU476
 1416 00da FFF7FEFF 		bl	Error_Handler
 1417              	.LVL69:
 1418 00de D9E7     		b	.L66
 1419              	.L75:
 222:Core/Src/tim.c ****   }
 1420              		.loc 1 222 5 view .LVU477
 1421 00e0 FFF7FEFF 		bl	Error_Handler
 1422              	.LVL70:
 1423 00e4 E5E7     		b	.L67
 1424              	.L77:
 1425 00e6 00BF     		.align	2
 1426              	.L76:
 1427 00e8 00000000 		.word	htim8
 1428 00ec 00040140 		.word	1073808384
 1429              		.cfi_endproc
 1430              	.LFE137:
 1432              		.section	.text.HAL_TIM_Encoder_MspDeInit,"ax",%progbits
 1433              		.align	1
 1434              		.global	HAL_TIM_Encoder_MspDeInit
 1435              		.syntax unified
 1436              		.thumb
 1437              		.thumb_func
 1438              		.fpu fpv4-sp-d16
 1440              	HAL_TIM_Encoder_MspDeInit:
 1441              	.LVL71:
 1442              	.LFB141:
 413:Core/Src/tim.c **** 
 414:Core/Src/tim.c **** void HAL_TIM_Encoder_MspDeInit(TIM_HandleTypeDef* tim_encoderHandle)
 415:Core/Src/tim.c **** {
 1443              		.loc 1 415 1 view -0
 1444              		.cfi_startproc
 1445              		@ args = 0, pretend = 0, frame = 0
 1446              		@ frame_needed = 0, uses_anonymous_args = 0
 1447              		.loc 1 415 1 is_stmt 0 view .LVU479
 1448 0000 08B5     		push	{r3, lr}
 1449              	.LCFI31:
 1450              		.cfi_def_cfa_offset 8
 1451              		.cfi_offset 3, -8
 1452              		.cfi_offset 14, -4
 416:Core/Src/tim.c **** 
 417:Core/Src/tim.c ****   if(tim_encoderHandle->Instance==TIM1)
 1453              		.loc 1 417 3 is_stmt 1 view .LVU480
 1454              		.loc 1 417 23 is_stmt 0 view .LVU481
 1455 0002 0368     		ldr	r3, [r0]
ARM GAS  C:\Users\one\AppData\Local\Temp\ccK6ff3Z.s 			page 38


 1456              		.loc 1 417 5 view .LVU482
 1457 0004 2B4A     		ldr	r2, .L88
 1458 0006 9342     		cmp	r3, r2
 1459 0008 09D0     		beq	.L84
 418:Core/Src/tim.c ****   {
 419:Core/Src/tim.c ****   /* USER CODE BEGIN TIM1_MspDeInit 0 */
 420:Core/Src/tim.c **** 
 421:Core/Src/tim.c ****   /* USER CODE END TIM1_MspDeInit 0 */
 422:Core/Src/tim.c ****     /* Peripheral clock disable */
 423:Core/Src/tim.c ****     __HAL_RCC_TIM1_CLK_DISABLE();
 424:Core/Src/tim.c ****   
 425:Core/Src/tim.c ****     /**TIM1 GPIO Configuration    
 426:Core/Src/tim.c ****     PE11     ------> TIM1_CH2
 427:Core/Src/tim.c ****     PA8     ------> TIM1_CH1 
 428:Core/Src/tim.c ****     */
 429:Core/Src/tim.c ****     HAL_GPIO_DeInit(GPIOE, GPIO_PIN_11);
 430:Core/Src/tim.c **** 
 431:Core/Src/tim.c ****     HAL_GPIO_DeInit(GPIOA, GPIO_PIN_8);
 432:Core/Src/tim.c **** 
 433:Core/Src/tim.c ****     /* TIM1 interrupt Deinit */
 434:Core/Src/tim.c ****     HAL_NVIC_DisableIRQ(TIM1_BRK_TIM9_IRQn);
 435:Core/Src/tim.c ****     HAL_NVIC_DisableIRQ(TIM1_UP_TIM10_IRQn);
 436:Core/Src/tim.c ****     HAL_NVIC_DisableIRQ(TIM1_TRG_COM_TIM11_IRQn);
 437:Core/Src/tim.c ****     HAL_NVIC_DisableIRQ(TIM1_CC_IRQn);
 438:Core/Src/tim.c ****   /* USER CODE BEGIN TIM1_MspDeInit 1 */
 439:Core/Src/tim.c **** 
 440:Core/Src/tim.c ****   /* USER CODE END TIM1_MspDeInit 1 */
 441:Core/Src/tim.c ****   }
 442:Core/Src/tim.c ****   else if(tim_encoderHandle->Instance==TIM2)
 1460              		.loc 1 442 8 is_stmt 1 view .LVU483
 1461              		.loc 1 442 10 is_stmt 0 view .LVU484
 1462 000a B3F1804F 		cmp	r3, #1073741824
 1463 000e 23D0     		beq	.L85
 443:Core/Src/tim.c ****   {
 444:Core/Src/tim.c ****   /* USER CODE BEGIN TIM2_MspDeInit 0 */
 445:Core/Src/tim.c **** 
 446:Core/Src/tim.c ****   /* USER CODE END TIM2_MspDeInit 0 */
 447:Core/Src/tim.c ****     /* Peripheral clock disable */
 448:Core/Src/tim.c ****     __HAL_RCC_TIM2_CLK_DISABLE();
 449:Core/Src/tim.c ****   
 450:Core/Src/tim.c ****     /**TIM2 GPIO Configuration    
 451:Core/Src/tim.c ****     PA1     ------> TIM2_CH2
 452:Core/Src/tim.c ****     PA15     ------> TIM2_CH1 
 453:Core/Src/tim.c ****     */
 454:Core/Src/tim.c ****     HAL_GPIO_DeInit(GPIOA, GPIO_PIN_1|GPIO_PIN_15);
 455:Core/Src/tim.c **** 
 456:Core/Src/tim.c ****     /* TIM2 interrupt Deinit */
 457:Core/Src/tim.c ****     HAL_NVIC_DisableIRQ(TIM2_IRQn);
 458:Core/Src/tim.c ****   /* USER CODE BEGIN TIM2_MspDeInit 1 */
 459:Core/Src/tim.c **** 
 460:Core/Src/tim.c ****   /* USER CODE END TIM2_MspDeInit 1 */
 461:Core/Src/tim.c ****   }
 462:Core/Src/tim.c ****   else if(tim_encoderHandle->Instance==TIM3)
 1464              		.loc 1 462 8 is_stmt 1 view .LVU485
 1465              		.loc 1 462 10 is_stmt 0 view .LVU486
 1466 0010 294A     		ldr	r2, .L88+4
 1467 0012 9342     		cmp	r3, r2
ARM GAS  C:\Users\one\AppData\Local\Temp\ccK6ff3Z.s 			page 39


 1468 0014 2ED0     		beq	.L86
 463:Core/Src/tim.c ****   {
 464:Core/Src/tim.c ****   /* USER CODE BEGIN TIM3_MspDeInit 0 */
 465:Core/Src/tim.c **** 
 466:Core/Src/tim.c ****   /* USER CODE END TIM3_MspDeInit 0 */
 467:Core/Src/tim.c ****     /* Peripheral clock disable */
 468:Core/Src/tim.c ****     __HAL_RCC_TIM3_CLK_DISABLE();
 469:Core/Src/tim.c ****   
 470:Core/Src/tim.c ****     /**TIM3 GPIO Configuration    
 471:Core/Src/tim.c ****     PA7     ------> TIM3_CH2
 472:Core/Src/tim.c ****     PB4     ------> TIM3_CH1 
 473:Core/Src/tim.c ****     */
 474:Core/Src/tim.c ****     HAL_GPIO_DeInit(GPIOA, GPIO_PIN_7);
 475:Core/Src/tim.c **** 
 476:Core/Src/tim.c ****     HAL_GPIO_DeInit(GPIOB, GPIO_PIN_4);
 477:Core/Src/tim.c **** 
 478:Core/Src/tim.c ****     /* TIM3 interrupt Deinit */
 479:Core/Src/tim.c ****     HAL_NVIC_DisableIRQ(TIM3_IRQn);
 480:Core/Src/tim.c ****   /* USER CODE BEGIN TIM3_MspDeInit 1 */
 481:Core/Src/tim.c **** 
 482:Core/Src/tim.c ****   /* USER CODE END TIM3_MspDeInit 1 */
 483:Core/Src/tim.c ****   }
 484:Core/Src/tim.c ****   else if(tim_encoderHandle->Instance==TIM4)
 1469              		.loc 1 484 8 is_stmt 1 view .LVU487
 1470              		.loc 1 484 10 is_stmt 0 view .LVU488
 1471 0016 294A     		ldr	r2, .L88+8
 1472 0018 9342     		cmp	r3, r2
 1473 001a 3DD0     		beq	.L87
 1474              	.LVL72:
 1475              	.L78:
 485:Core/Src/tim.c ****   {
 486:Core/Src/tim.c ****   /* USER CODE BEGIN TIM4_MspDeInit 0 */
 487:Core/Src/tim.c **** 
 488:Core/Src/tim.c ****   /* USER CODE END TIM4_MspDeInit 0 */
 489:Core/Src/tim.c ****     /* Peripheral clock disable */
 490:Core/Src/tim.c ****     __HAL_RCC_TIM4_CLK_DISABLE();
 491:Core/Src/tim.c ****   
 492:Core/Src/tim.c ****     /**TIM4 GPIO Configuration    
 493:Core/Src/tim.c ****     PB6     ------> TIM4_CH1
 494:Core/Src/tim.c ****     PB7     ------> TIM4_CH2 
 495:Core/Src/tim.c ****     */
 496:Core/Src/tim.c ****     HAL_GPIO_DeInit(GPIOB, GPIO_PIN_6|GPIO_PIN_7);
 497:Core/Src/tim.c **** 
 498:Core/Src/tim.c ****     /* TIM4 interrupt Deinit */
 499:Core/Src/tim.c ****     HAL_NVIC_DisableIRQ(TIM4_IRQn);
 500:Core/Src/tim.c ****   /* USER CODE BEGIN TIM4_MspDeInit 1 */
 501:Core/Src/tim.c **** 
 502:Core/Src/tim.c ****   /* USER CODE END TIM4_MspDeInit 1 */
 503:Core/Src/tim.c ****   }
 504:Core/Src/tim.c **** }
 1476              		.loc 1 504 1 view .LVU489
 1477 001c 08BD     		pop	{r3, pc}
 1478              	.LVL73:
 1479              	.L84:
 423:Core/Src/tim.c ****   
 1480              		.loc 1 423 5 is_stmt 1 view .LVU490
 1481 001e 02F59C32 		add	r2, r2, #79872
ARM GAS  C:\Users\one\AppData\Local\Temp\ccK6ff3Z.s 			page 40


 1482 0022 536C     		ldr	r3, [r2, #68]
 1483 0024 23F00103 		bic	r3, r3, #1
 1484 0028 5364     		str	r3, [r2, #68]
 429:Core/Src/tim.c **** 
 1485              		.loc 1 429 5 view .LVU491
 1486 002a 4FF40061 		mov	r1, #2048
 1487 002e 2448     		ldr	r0, .L88+12
 1488              	.LVL74:
 429:Core/Src/tim.c **** 
 1489              		.loc 1 429 5 is_stmt 0 view .LVU492
 1490 0030 FFF7FEFF 		bl	HAL_GPIO_DeInit
 1491              	.LVL75:
 431:Core/Src/tim.c **** 
 1492              		.loc 1 431 5 is_stmt 1 view .LVU493
 1493 0034 4FF48071 		mov	r1, #256
 1494 0038 2248     		ldr	r0, .L88+16
 1495 003a FFF7FEFF 		bl	HAL_GPIO_DeInit
 1496              	.LVL76:
 434:Core/Src/tim.c ****     HAL_NVIC_DisableIRQ(TIM1_UP_TIM10_IRQn);
 1497              		.loc 1 434 5 view .LVU494
 1498 003e 1820     		movs	r0, #24
 1499 0040 FFF7FEFF 		bl	HAL_NVIC_DisableIRQ
 1500              	.LVL77:
 435:Core/Src/tim.c ****     HAL_NVIC_DisableIRQ(TIM1_TRG_COM_TIM11_IRQn);
 1501              		.loc 1 435 5 view .LVU495
 1502 0044 1920     		movs	r0, #25
 1503 0046 FFF7FEFF 		bl	HAL_NVIC_DisableIRQ
 1504              	.LVL78:
 436:Core/Src/tim.c ****     HAL_NVIC_DisableIRQ(TIM1_CC_IRQn);
 1505              		.loc 1 436 5 view .LVU496
 1506 004a 1A20     		movs	r0, #26
 1507 004c FFF7FEFF 		bl	HAL_NVIC_DisableIRQ
 1508              	.LVL79:
 437:Core/Src/tim.c ****   /* USER CODE BEGIN TIM1_MspDeInit 1 */
 1509              		.loc 1 437 5 view .LVU497
 1510 0050 1B20     		movs	r0, #27
 1511 0052 FFF7FEFF 		bl	HAL_NVIC_DisableIRQ
 1512              	.LVL80:
 1513 0056 E1E7     		b	.L78
 1514              	.LVL81:
 1515              	.L85:
 448:Core/Src/tim.c ****   
 1516              		.loc 1 448 5 view .LVU498
 1517 0058 1B4A     		ldr	r2, .L88+20
 1518 005a 136C     		ldr	r3, [r2, #64]
 1519 005c 23F00103 		bic	r3, r3, #1
 1520 0060 1364     		str	r3, [r2, #64]
 454:Core/Src/tim.c **** 
 1521              		.loc 1 454 5 view .LVU499
 1522 0062 48F20201 		movw	r1, #32770
 1523 0066 1748     		ldr	r0, .L88+16
 1524              	.LVL82:
 454:Core/Src/tim.c **** 
 1525              		.loc 1 454 5 is_stmt 0 view .LVU500
 1526 0068 FFF7FEFF 		bl	HAL_GPIO_DeInit
 1527              	.LVL83:
 457:Core/Src/tim.c ****   /* USER CODE BEGIN TIM2_MspDeInit 1 */
ARM GAS  C:\Users\one\AppData\Local\Temp\ccK6ff3Z.s 			page 41


 1528              		.loc 1 457 5 is_stmt 1 view .LVU501
 1529 006c 1C20     		movs	r0, #28
 1530 006e FFF7FEFF 		bl	HAL_NVIC_DisableIRQ
 1531              	.LVL84:
 1532 0072 D3E7     		b	.L78
 1533              	.LVL85:
 1534              	.L86:
 468:Core/Src/tim.c ****   
 1535              		.loc 1 468 5 view .LVU502
 1536 0074 02F50D32 		add	r2, r2, #144384
 1537 0078 136C     		ldr	r3, [r2, #64]
 1538 007a 23F00203 		bic	r3, r3, #2
 1539 007e 1364     		str	r3, [r2, #64]
 474:Core/Src/tim.c **** 
 1540              		.loc 1 474 5 view .LVU503
 1541 0080 8021     		movs	r1, #128
 1542 0082 1048     		ldr	r0, .L88+16
 1543              	.LVL86:
 474:Core/Src/tim.c **** 
 1544              		.loc 1 474 5 is_stmt 0 view .LVU504
 1545 0084 FFF7FEFF 		bl	HAL_GPIO_DeInit
 1546              	.LVL87:
 476:Core/Src/tim.c **** 
 1547              		.loc 1 476 5 is_stmt 1 view .LVU505
 1548 0088 1021     		movs	r1, #16
 1549 008a 1048     		ldr	r0, .L88+24
 1550 008c FFF7FEFF 		bl	HAL_GPIO_DeInit
 1551              	.LVL88:
 479:Core/Src/tim.c ****   /* USER CODE BEGIN TIM3_MspDeInit 1 */
 1552              		.loc 1 479 5 view .LVU506
 1553 0090 1D20     		movs	r0, #29
 1554 0092 FFF7FEFF 		bl	HAL_NVIC_DisableIRQ
 1555              	.LVL89:
 1556 0096 C1E7     		b	.L78
 1557              	.LVL90:
 1558              	.L87:
 490:Core/Src/tim.c ****   
 1559              		.loc 1 490 5 view .LVU507
 1560 0098 02F50C32 		add	r2, r2, #143360
 1561 009c 136C     		ldr	r3, [r2, #64]
 1562 009e 23F00403 		bic	r3, r3, #4
 1563 00a2 1364     		str	r3, [r2, #64]
 496:Core/Src/tim.c **** 
 1564              		.loc 1 496 5 view .LVU508
 1565 00a4 C021     		movs	r1, #192
 1566 00a6 0948     		ldr	r0, .L88+24
 1567              	.LVL91:
 496:Core/Src/tim.c **** 
 1568              		.loc 1 496 5 is_stmt 0 view .LVU509
 1569 00a8 FFF7FEFF 		bl	HAL_GPIO_DeInit
 1570              	.LVL92:
 499:Core/Src/tim.c ****   /* USER CODE BEGIN TIM4_MspDeInit 1 */
 1571              		.loc 1 499 5 is_stmt 1 view .LVU510
 1572 00ac 1E20     		movs	r0, #30
 1573 00ae FFF7FEFF 		bl	HAL_NVIC_DisableIRQ
 1574              	.LVL93:
 1575              		.loc 1 504 1 is_stmt 0 view .LVU511
ARM GAS  C:\Users\one\AppData\Local\Temp\ccK6ff3Z.s 			page 42


 1576 00b2 B3E7     		b	.L78
 1577              	.L89:
 1578              		.align	2
 1579              	.L88:
 1580 00b4 00000140 		.word	1073807360
 1581 00b8 00040040 		.word	1073742848
 1582 00bc 00080040 		.word	1073743872
 1583 00c0 00100240 		.word	1073876992
 1584 00c4 00000240 		.word	1073872896
 1585 00c8 00380240 		.word	1073887232
 1586 00cc 00040240 		.word	1073873920
 1587              		.cfi_endproc
 1588              	.LFE141:
 1590              		.section	.text.HAL_TIM_PWM_MspDeInit,"ax",%progbits
 1591              		.align	1
 1592              		.global	HAL_TIM_PWM_MspDeInit
 1593              		.syntax unified
 1594              		.thumb
 1595              		.thumb_func
 1596              		.fpu fpv4-sp-d16
 1598              	HAL_TIM_PWM_MspDeInit:
 1599              	.LVL94:
 1600              	.LFB142:
 505:Core/Src/tim.c **** 
 506:Core/Src/tim.c **** void HAL_TIM_PWM_MspDeInit(TIM_HandleTypeDef* tim_pwmHandle)
 507:Core/Src/tim.c **** {
 1601              		.loc 1 507 1 is_stmt 1 view -0
 1602              		.cfi_startproc
 1603              		@ args = 0, pretend = 0, frame = 0
 1604              		@ frame_needed = 0, uses_anonymous_args = 0
 1605              		.loc 1 507 1 is_stmt 0 view .LVU513
 1606 0000 08B5     		push	{r3, lr}
 1607              	.LCFI32:
 1608              		.cfi_def_cfa_offset 8
 1609              		.cfi_offset 3, -8
 1610              		.cfi_offset 14, -4
 508:Core/Src/tim.c **** 
 509:Core/Src/tim.c ****   if(tim_pwmHandle->Instance==TIM8)
 1611              		.loc 1 509 3 is_stmt 1 view .LVU514
 1612              		.loc 1 509 19 is_stmt 0 view .LVU515
 1613 0002 0268     		ldr	r2, [r0]
 1614              		.loc 1 509 5 view .LVU516
 1615 0004 064B     		ldr	r3, .L94
 1616 0006 9A42     		cmp	r2, r3
 1617 0008 00D0     		beq	.L93
 1618              	.LVL95:
 1619              	.L90:
 510:Core/Src/tim.c ****   {
 511:Core/Src/tim.c ****   /* USER CODE BEGIN TIM8_MspDeInit 0 */
 512:Core/Src/tim.c **** 
 513:Core/Src/tim.c ****   /* USER CODE END TIM8_MspDeInit 0 */
 514:Core/Src/tim.c ****     /* Peripheral clock disable */
 515:Core/Src/tim.c ****     __HAL_RCC_TIM8_CLK_DISABLE();
 516:Core/Src/tim.c **** 
 517:Core/Src/tim.c ****     /* TIM8 interrupt Deinit */
 518:Core/Src/tim.c ****     HAL_NVIC_DisableIRQ(TIM8_UP_TIM13_IRQn);
 519:Core/Src/tim.c ****   /* USER CODE BEGIN TIM8_MspDeInit 1 */
ARM GAS  C:\Users\one\AppData\Local\Temp\ccK6ff3Z.s 			page 43


 520:Core/Src/tim.c **** 
 521:Core/Src/tim.c ****   /* USER CODE END TIM8_MspDeInit 1 */
 522:Core/Src/tim.c ****   }
 523:Core/Src/tim.c **** } 
 1620              		.loc 1 523 1 view .LVU517
 1621 000a 08BD     		pop	{r3, pc}
 1622              	.LVL96:
 1623              	.L93:
 515:Core/Src/tim.c **** 
 1624              		.loc 1 515 5 is_stmt 1 view .LVU518
 1625 000c 054A     		ldr	r2, .L94+4
 1626 000e 536C     		ldr	r3, [r2, #68]
 1627 0010 23F00203 		bic	r3, r3, #2
 1628 0014 5364     		str	r3, [r2, #68]
 518:Core/Src/tim.c ****   /* USER CODE BEGIN TIM8_MspDeInit 1 */
 1629              		.loc 1 518 5 view .LVU519
 1630 0016 2C20     		movs	r0, #44
 1631              	.LVL97:
 518:Core/Src/tim.c ****   /* USER CODE BEGIN TIM8_MspDeInit 1 */
 1632              		.loc 1 518 5 is_stmt 0 view .LVU520
 1633 0018 FFF7FEFF 		bl	HAL_NVIC_DisableIRQ
 1634              	.LVL98:
 1635              		.loc 1 523 1 view .LVU521
 1636 001c F5E7     		b	.L90
 1637              	.L95:
 1638 001e 00BF     		.align	2
 1639              	.L94:
 1640 0020 00040140 		.word	1073808384
 1641 0024 00380240 		.word	1073887232
 1642              		.cfi_endproc
 1643              	.LFE142:
 1645              		.comm	htim8,64,4
 1646              		.comm	htim4,64,4
 1647              		.comm	htim3,64,4
 1648              		.comm	htim2,64,4
 1649              		.comm	htim1,64,4
 1650              		.text
 1651              	.Letext0:
 1652              		.file 2 "c:\\vsarm\\armcc\\arm-none-eabi\\include\\machine\\_default_types.h"
 1653              		.file 3 "c:\\vsarm\\armcc\\arm-none-eabi\\include\\sys\\_stdint.h"
 1654              		.file 4 "Drivers/CMSIS/Include/core_cm4.h"
 1655              		.file 5 "Drivers/CMSIS/Device/ST/STM32F4xx/Include/system_stm32f4xx.h"
 1656              		.file 6 "Drivers/CMSIS/Device/ST/STM32F4xx/Include/stm32f407xx.h"
 1657              		.file 7 "Drivers/STM32F4xx_HAL_Driver/Inc/stm32f4xx_hal_def.h"
 1658              		.file 8 "Drivers/STM32F4xx_HAL_Driver/Inc/stm32f4xx_hal_gpio.h"
 1659              		.file 9 "Drivers/STM32F4xx_HAL_Driver/Inc/stm32f4xx_hal_dma.h"
 1660              		.file 10 "Drivers/STM32F4xx_HAL_Driver/Inc/stm32f4xx_hal_tim.h"
 1661              		.file 11 "c:\\vsarm\\armcc\\lib\\gcc\\arm-none-eabi\\9.3.1\\include\\stddef.h"
 1662              		.file 12 "c:\\vsarm\\armcc\\arm-none-eabi\\include\\sys\\_types.h"
 1663              		.file 13 "c:\\vsarm\\armcc\\arm-none-eabi\\include\\sys\\reent.h"
 1664              		.file 14 "c:\\vsarm\\armcc\\arm-none-eabi\\include\\sys\\lock.h"
 1665              		.file 15 "Core/Inc/tim.h"
 1666              		.file 16 "Drivers/STM32F4xx_HAL_Driver/Inc/stm32f4xx_hal_cortex.h"
 1667              		.file 17 "Drivers/STM32F4xx_HAL_Driver/Inc/stm32f4xx_hal_tim_ex.h"
 1668              		.file 18 "Core/Inc/main.h"
 1669              		.file 19 "<built-in>"
ARM GAS  C:\Users\one\AppData\Local\Temp\ccK6ff3Z.s 			page 44

